ccopy_reg
_reconstructor
p1
(cnetworkx.classes.graph
Graph
p2
c__builtin__
object
p3
NtRp4
(dp5
S'adjlist_inner_dict_factory'
p6
c__builtin__
dict
p7
sS'node_dict_factory'
p8
g7
sS'edge_attr_dict_factory'
p9
g7
sS'_node'
p10
(dp11
I0
(dp12
sI1
(dp13
sI2
(dp14
sI3
(dp15
sI4
(dp16
sI5
(dp17
sI6
(dp18
sI7
(dp19
sI8
(dp20
sI9
(dp21
sI10
(dp22
sI11
(dp23
sI12
(dp24
sI13
(dp25
sI14
(dp26
sI15
(dp27
sI16
(dp28
sI17
(dp29
sI18
(dp30
sI19
(dp31
sI20
(dp32
sI21
(dp33
sI22
(dp34
sI23
(dp35
sI24
(dp36
sI25
(dp37
sI26
(dp38
sI27
(dp39
sI28
(dp40
sI29
(dp41
sI30
(dp42
sI31
(dp43
sI32
(dp44
sI33
(dp45
sI34
(dp46
sI35
(dp47
sI36
(dp48
sI37
(dp49
sI38
(dp50
sI39
(dp51
sI40
(dp52
sI41
(dp53
sI42
(dp54
sI43
(dp55
sI44
(dp56
sI45
(dp57
sI46
(dp58
sI47
(dp59
sI48
(dp60
sI49
(dp61
sI50
(dp62
sI51
(dp63
sI52
(dp64
sI53
(dp65
sI54
(dp66
sI55
(dp67
sI56
(dp68
sI57
(dp69
sI58
(dp70
sI59
(dp71
sI60
(dp72
sI61
(dp73
sI62
(dp74
sI63
(dp75
sI64
(dp76
sI65
(dp77
sI66
(dp78
sI67
(dp79
sI68
(dp80
sI69
(dp81
sI70
(dp82
sI71
(dp83
sI72
(dp84
sI73
(dp85
sI74
(dp86
sI75
(dp87
sI76
(dp88
sI77
(dp89
sI78
(dp90
sI79
(dp91
sI80
(dp92
sI81
(dp93
sI82
(dp94
sI83
(dp95
sI84
(dp96
sI85
(dp97
sI86
(dp98
sI87
(dp99
sI88
(dp100
sI89
(dp101
sI90
(dp102
sI91
(dp103
sI92
(dp104
sI93
(dp105
sI94
(dp106
sI95
(dp107
sI96
(dp108
sI97
(dp109
sI98
(dp110
sI99
(dp111
sI100
(dp112
sI101
(dp113
sI102
(dp114
sI103
(dp115
sI104
(dp116
sI105
(dp117
sI106
(dp118
sI107
(dp119
sI108
(dp120
sI109
(dp121
sI110
(dp122
sI111
(dp123
sI112
(dp124
sI113
(dp125
sI114
(dp126
sI115
(dp127
sI116
(dp128
sI117
(dp129
sI118
(dp130
sI119
(dp131
sI120
(dp132
sI121
(dp133
sI122
(dp134
sI123
(dp135
sI124
(dp136
sI125
(dp137
sI126
(dp138
sI127
(dp139
sI128
(dp140
sI129
(dp141
sI130
(dp142
sI131
(dp143
sI132
(dp144
sI133
(dp145
sI134
(dp146
sI135
(dp147
sI136
(dp148
sI137
(dp149
sI138
(dp150
sI139
(dp151
sI140
(dp152
sI141
(dp153
sI142
(dp154
sI143
(dp155
sI144
(dp156
sI145
(dp157
sI146
(dp158
sI147
(dp159
sI148
(dp160
sI149
(dp161
sI150
(dp162
sI151
(dp163
sI152
(dp164
sI153
(dp165
sI154
(dp166
sI155
(dp167
sI156
(dp168
sI157
(dp169
sI158
(dp170
sI159
(dp171
sI160
(dp172
sI161
(dp173
sI162
(dp174
sI163
(dp175
sI164
(dp176
sI165
(dp177
sI166
(dp178
sI167
(dp179
sI168
(dp180
sI169
(dp181
sI170
(dp182
sI171
(dp183
sI172
(dp184
sI173
(dp185
sI174
(dp186
sI175
(dp187
sI176
(dp188
sI177
(dp189
sI178
(dp190
sI179
(dp191
sI180
(dp192
sI181
(dp193
sI182
(dp194
sI183
(dp195
sI184
(dp196
sI185
(dp197
sI186
(dp198
sI187
(dp199
sI188
(dp200
sI189
(dp201
sI190
(dp202
sI191
(dp203
sI192
(dp204
sI193
(dp205
sI194
(dp206
sI195
(dp207
sI196
(dp208
sI197
(dp209
sI198
(dp210
sI199
(dp211
sI200
(dp212
sI201
(dp213
sI202
(dp214
sI203
(dp215
sI204
(dp216
sI205
(dp217
sI206
(dp218
sI207
(dp219
sI208
(dp220
sI209
(dp221
sI210
(dp222
sI211
(dp223
sI212
(dp224
sI213
(dp225
sI214
(dp226
sI215
(dp227
sI216
(dp228
sI217
(dp229
sI218
(dp230
sI219
(dp231
sI220
(dp232
sI221
(dp233
sI222
(dp234
sI223
(dp235
sI224
(dp236
sI225
(dp237
sI226
(dp238
sI227
(dp239
sI228
(dp240
sI229
(dp241
sI230
(dp242
sI231
(dp243
sI232
(dp244
sI233
(dp245
sI234
(dp246
sI235
(dp247
sI236
(dp248
sI237
(dp249
sI238
(dp250
sI239
(dp251
sI240
(dp252
sI241
(dp253
sI242
(dp254
sI243
(dp255
sI244
(dp256
sI245
(dp257
sI246
(dp258
sI247
(dp259
sI248
(dp260
sI249
(dp261
sI250
(dp262
sI251
(dp263
sI252
(dp264
sI253
(dp265
sI254
(dp266
sI255
(dp267
sI256
(dp268
sI257
(dp269
sI258
(dp270
sI259
(dp271
sI260
(dp272
sI261
(dp273
sI262
(dp274
sI263
(dp275
sI264
(dp276
sI265
(dp277
sI266
(dp278
sI267
(dp279
sI268
(dp280
sI269
(dp281
sI270
(dp282
sI271
(dp283
sI272
(dp284
sI273
(dp285
sI274
(dp286
sI275
(dp287
sI276
(dp288
sI277
(dp289
sI278
(dp290
sI279
(dp291
sI280
(dp292
sI281
(dp293
sI282
(dp294
sI283
(dp295
sI284
(dp296
sI285
(dp297
sI286
(dp298
sI287
(dp299
sI288
(dp300
sI289
(dp301
sI290
(dp302
sI291
(dp303
sI292
(dp304
sI293
(dp305
sI294
(dp306
sI295
(dp307
sI296
(dp308
sI297
(dp309
sI298
(dp310
sI299
(dp311
sI300
(dp312
sI301
(dp313
sI302
(dp314
sI303
(dp315
sI304
(dp316
sI305
(dp317
sI306
(dp318
sI307
(dp319
sI308
(dp320
sI309
(dp321
sI310
(dp322
sI311
(dp323
sI312
(dp324
sI313
(dp325
sI314
(dp326
sI315
(dp327
sI316
(dp328
sI317
(dp329
sI318
(dp330
sI319
(dp331
sI320
(dp332
sI321
(dp333
sI322
(dp334
sI323
(dp335
sI324
(dp336
sI325
(dp337
sI326
(dp338
sI327
(dp339
sI328
(dp340
sI329
(dp341
sI330
(dp342
sI331
(dp343
sI332
(dp344
sI333
(dp345
sI334
(dp346
sI335
(dp347
sI336
(dp348
sI337
(dp349
sI338
(dp350
sI339
(dp351
sI340
(dp352
sI341
(dp353
sI342
(dp354
sI343
(dp355
sI344
(dp356
sI345
(dp357
sI346
(dp358
sI347
(dp359
sI348
(dp360
sI349
(dp361
sI350
(dp362
sI351
(dp363
sI352
(dp364
sI353
(dp365
sI354
(dp366
sI355
(dp367
sI356
(dp368
sI357
(dp369
sI358
(dp370
sI359
(dp371
sI360
(dp372
sI361
(dp373
sI362
(dp374
sI363
(dp375
sI364
(dp376
sI365
(dp377
sI366
(dp378
sI367
(dp379
sI368
(dp380
sI369
(dp381
sI370
(dp382
sI371
(dp383
sI372
(dp384
sI373
(dp385
sI374
(dp386
sI375
(dp387
sI376
(dp388
sI377
(dp389
sI378
(dp390
sI379
(dp391
sI380
(dp392
sI381
(dp393
sI382
(dp394
sI383
(dp395
sI384
(dp396
sI385
(dp397
sI386
(dp398
sI387
(dp399
sI388
(dp400
sI389
(dp401
sI390
(dp402
sI391
(dp403
sI392
(dp404
sI393
(dp405
sI394
(dp406
sI395
(dp407
sI396
(dp408
sI397
(dp409
sI398
(dp410
sI399
(dp411
sI400
(dp412
sI401
(dp413
sI402
(dp414
sI403
(dp415
sI404
(dp416
sI405
(dp417
sI406
(dp418
sI407
(dp419
sI408
(dp420
sI409
(dp421
sI410
(dp422
sI411
(dp423
sI412
(dp424
sI413
(dp425
sI414
(dp426
sI415
(dp427
sI416
(dp428
sI417
(dp429
sI418
(dp430
sI419
(dp431
sI420
(dp432
sI421
(dp433
sI422
(dp434
sI423
(dp435
sI424
(dp436
sI425
(dp437
sI426
(dp438
sI427
(dp439
sI428
(dp440
sI429
(dp441
sI430
(dp442
sI431
(dp443
sI432
(dp444
sI433
(dp445
sI434
(dp446
sI435
(dp447
sI436
(dp448
sI437
(dp449
sI438
(dp450
sI439
(dp451
sI440
(dp452
sI441
(dp453
sI442
(dp454
sI443
(dp455
sI444
(dp456
sI445
(dp457
sI446
(dp458
sI447
(dp459
sI448
(dp460
sI449
(dp461
sI450
(dp462
sI451
(dp463
sI452
(dp464
sI453
(dp465
sI454
(dp466
sI455
(dp467
sI456
(dp468
sI457
(dp469
sI458
(dp470
sI459
(dp471
sI460
(dp472
sI461
(dp473
sI462
(dp474
sI463
(dp475
sI464
(dp476
sI465
(dp477
sI466
(dp478
sI467
(dp479
sI468
(dp480
sI469
(dp481
sI470
(dp482
sI471
(dp483
sI472
(dp484
sI473
(dp485
sI474
(dp486
sI475
(dp487
sI476
(dp488
sI477
(dp489
sI478
(dp490
sI479
(dp491
sI480
(dp492
sI481
(dp493
sI482
(dp494
sI483
(dp495
sI484
(dp496
sI485
(dp497
sI486
(dp498
sI487
(dp499
sI488
(dp500
sI489
(dp501
sI490
(dp502
sI491
(dp503
sI492
(dp504
sI493
(dp505
sI494
(dp506
sI495
(dp507
sI496
(dp508
sI497
(dp509
sI498
(dp510
sI499
(dp511
sI500
(dp512
sI501
(dp513
sI502
(dp514
sI503
(dp515
sI504
(dp516
sI505
(dp517
sI506
(dp518
sI507
(dp519
sI508
(dp520
sI509
(dp521
sI510
(dp522
sI511
(dp523
sI512
(dp524
sI513
(dp525
sI514
(dp526
sI515
(dp527
sI516
(dp528
sI517
(dp529
sI518
(dp530
sI519
(dp531
sI520
(dp532
sI521
(dp533
sI522
(dp534
sI523
(dp535
sI524
(dp536
sI525
(dp537
sI526
(dp538
sI527
(dp539
sI528
(dp540
sI529
(dp541
sI530
(dp542
sI531
(dp543
sI532
(dp544
sI533
(dp545
sI534
(dp546
sI535
(dp547
sI536
(dp548
sI537
(dp549
sI538
(dp550
sI539
(dp551
sI540
(dp552
sI541
(dp553
sI542
(dp554
sI543
(dp555
sI544
(dp556
sI545
(dp557
sI546
(dp558
sI547
(dp559
sI548
(dp560
ssS'graph'
p561
(dp562
sS'root_graph'
p563
g4
sS'_adj'
p564
(dp565
I0
(dp566
I75
(dp567
S'color'
p568
S'blue'
p569
sS'distance'
p570
cnumpy.core.multiarray
scalar
p571
(cnumpy
dtype
p572
(S'f8'
I0
I1
tRp573
(I3
S'<'
NNNI-1
I-1
I0
tbS'\x00\x00\x00\x00\x008O@'
tRp574
sS'capacity'
p575
g571
(g573
S'\x99\x99\x99\x99\x99\x8fj@'
tRp576
sS'duedate'
p577
I9223372036854775807
ssI532
(dp578
g568
S'black'
p579
sg570
g571
(g573
S'\x00\x00\x00\x00\x008O@'
tRp580
sg575
g571
(g573
S'\x1e\x85\xebQ\xb8\x97R@'
tRp581
sg577
I9223372036854775807
ssI501
(dp582
g568
g569
sg570
g571
(g573
S'\x00\x00\x00\x00\x008?@'
tRp583
sg575
g571
(g573
S'\xcd\xcc\xcc\xcc\xcc\xc7i@'
tRp584
sg577
I9223372036854775807
ssI6
(dp585
g568
g579
sg570
g571
(g573
S'\x00\x00\x00\x00\x008?@'
tRp586
sg575
g571
(g573
S'\x90\xc2\xf5(\xdc\x0bR@'
tRp587
sg577
I9223372036854775807
sssI1
(dp588
I36
(dp589
g568
g579
sg570
g571
(g573
S'\x00\x00\x00\x00\x008?@'
tRp590
sg575
g571
(g573
S'\x90\xc2\xf5(\xdc\x0bR@'
tRp591
sg577
I9223372036854775807
ssI533
(dp592
g568
S'green'
p593
sg570
g571
(g573
S'\x00\x00\x00\x00\x008O@'
tRp594
sg575
g571
(g573
S'\n\xd7\xa3p\xbdCa@'
tRp595
sg577
I9223372036854775807
ssI7
(dp596
g568
g593
sg570
g571
(g573
S'\x00\x00\x00\x00\x008?@'
tRp597
sg575
g571
(g573
S'\x85\xebQ\xb8\xde\xc1`@'
tRp598
sg577
I9223372036854775807
sssI2
(dp599
I265
(dp600
g568
g579
sg570
g571
(g573
S'\x00\x00\x00\x00\x008/@'
tRp601
sg575
g571
(g573
S'G\xe1z\x14\xee\xc5Q@'
tRp602
sg577
I9223372036854775807
ssI525
(dp603
g568
g593
sg570
g571
(g573
S'\x00\x00\x00\x00\x008/@'
tRp604
sg575
g571
(g573
S'\xc2\xf5(\\\xef\x80`@'
tRp605
sg577
I9223372036854775807
ssI303
(dp606
g568
g593
sg570
g571
(g573
S'\x00\x00\x00\x00\x008?@'
tRp607
sg575
g571
(g573
S'\x85\xebQ\xb8\xde\xc1`@'
tRp608
sg577
I9223372036854775807
sssI3
(dp609
I545
(dp610
g568
g569
sg570
g571
(g573
S'\x00\x00\x00\x00\x008?@'
tRp611
sg575
g571
(g573
S'\xcd\xcc\xcc\xcc\xcc\xc7i@'
tRp612
sg577
I9223372036854775807
ssI506
(dp613
g568
g593
sg570
g571
(g573
S'\x00\x00\x00\x00\x008?@'
tRp614
sg575
g571
(g573
S'\x85\xebQ\xb8\xde\xc1`@'
tRp615
sg577
I9223372036854775807
ssI19
(dp616
g568
g569
sg570
g571
(g573
S'\x00\x00\x00\x00\x008O@'
tRp617
sg575
g571
(g573
S'\x99\x99\x99\x99\x99\x8fj@'
tRp618
sg577
I9223372036854775807
ssI77
(dp619
g568
g593
sg570
g571
(g573
S'\x00\x00\x00\x00\x008O@'
tRp620
sg575
g571
(g573
S'\n\xd7\xa3p\xbdCa@'
tRp621
sg577
I9223372036854775807
sssI4
(dp622
I546
(dp623
g568
g579
sg570
g571
(g573
S'\x00\x00\x00\x00\x008?@'
tRp624
sg575
g571
(g573
S'\x90\xc2\xf5(\xdc\x0bR@'
tRp625
sg577
I9223372036854775807
ssI507
(dp626
g568
g579
sg570
g571
(g573
S'\x00\x00\x00\x00\x008?@'
tRp627
sg575
g571
(g573
S'\x90\xc2\xf5(\xdc\x0bR@'
tRp628
sg577
I9223372036854775807
ssI12
(dp629
g568
g579
sg570
g571
(g573
S'\x00\x00\x00\x00\x008?@'
tRp630
sg575
g571
(g573
S'\x90\xc2\xf5(\xdc\x0bR@'
tRp631
sg577
I9223372036854775807
ssI39
(dp632
g568
g579
sg570
g571
(g573
S'\x00\x00\x00\x00\x008?@'
tRp633
sg575
g571
(g573
S'\x90\xc2\xf5(\xdc\x0bR@'
tRp634
sg577
I9223372036854775807
sssI5
(dp635
I80
(dp636
g568
g579
sg570
g571
(g573
S'\x00\x00\x00\x00\x008O@'
tRp637
sg575
g571
(g573
S'\x1e\x85\xebQ\xb8\x97R@'
tRp638
sg577
I9223372036854775807
ssI541
(dp639
g568
g579
sg570
g571
(g573
S'\x00\x00\x00\x00\x008O@'
tRp640
sg575
g571
(g573
S'\x1e\x85\xebQ\xb8\x97R@'
tRp641
sg577
I9223372036854775807
ssI453
(dp642
g568
g579
sg570
g571
(g573
S'\x00\x00\x00\x00\x008O@'
tRp643
sg575
g571
(g573
S'\x1e\x85\xebQ\xb8\x97R@'
tRp644
sg577
I9223372036854775807
sssI6
(dp645
I0
g585
sI16
(dp646
g568
g579
sg570
g571
(g573
S'\x00\x00\x00\x00\x008?@'
tRp647
sg575
g571
(g573
S'\x90\xc2\xf5(\xdc\x0bR@'
tRp648
sg577
I9223372036854775807
ssI510
(dp649
g568
g579
sg570
g571
(g573
S'\x00\x00\x00\x00\x008?@'
tRp650
sg575
g571
(g573
S'\x90\xc2\xf5(\xdc\x0bR@'
tRp651
sg577
I9223372036854775807
sssI7
(dp652
I1
g596
sI44
(dp653
g568
g579
sg570
g571
(g573
S'\x00\x00\x00\x00\x008?@'
tRp654
sg575
g571
(g573
S'\x90\xc2\xf5(\xdc\x0bR@'
tRp655
sg577
I9223372036854775807
ssI17
(dp656
g568
g593
sg570
g571
(g573
S'\x00\x00\x00\x00\x008?@'
tRp657
sg575
g571
(g573
S'\x85\xebQ\xb8\xde\xc1`@'
tRp658
sg577
I9223372036854775807
sssI8
(dp659
I10
(dp660
g568
g579
sg570
g571
(g573
S'\x00\x00\x00\x00\x008\x0f@'
tRp661
sg575
g571
(g573
S'R\xb8\x1e\x85{\x91Q@'
tRp662
sg577
I9223372036854775807
ssI477
(dp663
g568
g579
sg570
g571
(g573
S'\x00\x00\x00\x00\x008\x0f@'
tRp664
sg575
g571
(g573
S'R\xb8\x1e\x85{\x91Q@'
tRp665
sg577
I9223372036854775807
ssI134
(dp666
g568
g579
sg570
g571
(g573
S'\x00\x00\x00\x00\x008\x1f@'
tRp667
sg575
g571
(g573
S'\xa4p=\n\xf7\xa2Q@'
tRp668
sg577
I9223372036854775807
sssI9
(dp669
I457
(dp670
g568
g579
sg570
g571
(g573
S'\x00\x00\x00\x00\x008O@'
tRp671
sg575
g571
(g573
S'\x1e\x85\xebQ\xb8\x97R@'
tRp672
sg577
I9223372036854775807
ssI84
(dp673
g568
g579
sg570
g571
(g573
S'\x00\x00\x00\x00\x008O@'
tRp674
sg575
g571
(g573
S'\x1e\x85\xebQ\xb8\x97R@'
tRp675
sg577
I9223372036854775807
ssI543
(dp676
g568
g579
sg570
g571
(g573
S'\x00\x00\x00\x00\x008O@'
tRp677
sg575
g571
(g573
S'\x1e\x85\xebQ\xb8\x97R@'
tRp678
sg577
I9223372036854775807
sssI10
(dp679
I8
g660
sI11
(dp680
g568
g579
sg570
g571
(g573
S'\x00\x00\x00\x00\x008\x0f@'
tRp681
sg575
g571
(g573
S'R\xb8\x1e\x85{\x91Q@'
tRp682
sg577
I9223372036854775807
ssI479
(dp683
g568
g579
sg570
g571
(g573
S'\x00\x00\x00\x00\x008\x0f@'
tRp684
sg575
g571
(g573
S'R\xb8\x1e\x85{\x91Q@'
tRp685
sg577
I9223372036854775807
sssI11
(dp686
I136
(dp687
g568
g569
sg570
g571
(g573
S'\x00\x00\x00\x00\x008\x1f@'
tRp688
sg575
g571
(g573
S'3333\xf31i@'
tRp689
sg577
I9223372036854775807
ssI10
g680
sI74
(dp690
g568
g579
sg570
g571
(g573
S'\x00\x00\x00\x00\x008\x1f@'
tRp691
sg575
g571
(g573
S'\xa4p=\n\xf7\xa2Q@'
tRp692
sg577
I9223372036854775807
ssI482
(dp693
g568
g569
sg570
g571
(g573
S'\x00\x00\x00\x00\x008\x0f@'
tRp694
sg575
g571
(g573
S'\x9a\x99\x99\x99\xf9\x18i@'
tRp695
sg577
I9223372036854775807
sssI12
(dp696
I516
(dp697
g568
g579
sg570
g571
(g573
S'\x00\x00\x00\x00\x008?@'
tRp698
sg575
g571
(g573
S'\x90\xc2\xf5(\xdc\x0bR@'
tRp699
sg577
I9223372036854775807
ssI4
g629
sI20
(dp700
g568
g579
sg570
g571
(g573
S'\x00\x00\x00\x00\x008?@'
tRp701
sg575
g571
(g573
S'\x90\xc2\xf5(\xdc\x0bR@'
tRp702
sg577
I9223372036854775807
ssI49
(dp703
g568
g579
sg570
g571
(g573
S'\x00\x00\x00\x00\x008?@'
tRp704
sg575
g571
(g573
S'\x90\xc2\xf5(\xdc\x0bR@'
tRp705
sg577
I9223372036854775807
sssI13
(dp706
I87
(dp707
g568
g579
sg570
g571
(g573
S'\x00\x00\x00\x00\x008O@'
tRp708
sg575
g571
(g573
S'\x1e\x85\xebQ\xb8\x97R@'
tRp709
sg577
I9223372036854775807
ssI548
(dp710
g568
g579
sg570
g571
(g573
S'\x00\x00\x00\x00\x008O@'
tRp711
sg575
g571
(g573
S'\x1e\x85\xebQ\xb8\x97R@'
tRp712
sg577
I9223372036854775807
ssI463
(dp713
g568
g579
sg570
g571
(g573
S'\x00\x00\x00\x00\x008O@'
tRp714
sg575
g571
(g573
S'\x1e\x85\xebQ\xb8\x97R@'
tRp715
sg577
I9223372036854775807
sssI14
(dp716
I375
(dp717
g568
g579
sg570
g571
(g573
S'\x00\x00\x00\x00\x008\x0f@'
tRp718
sg575
g571
(g573
S'R\xb8\x1e\x85{\x91Q@'
tRp719
sg577
I9223372036854775807
ssI270
(dp720
g568
g579
sg570
g571
(g573
S'\x00\x00\x00\x00\x008\x0f@'
tRp721
sg575
g571
(g573
S'R\xb8\x1e\x85{\x91Q@'
tRp722
sg577
I9223372036854775807
ssI399
(dp723
g568
g579
sg570
g571
(g573
S'\x00\x00\x00\x00\x008\x0f@'
tRp724
sg575
g571
(g573
S'R\xb8\x1e\x85{\x91Q@'
tRp725
sg577
I9223372036854775807
sssI15
(dp726
I74
(dp727
g568
g579
sg570
g571
(g573
S'\x00\x00\x00\x00\x008\x1f@'
tRp728
sg575
g571
(g573
S'\xa4p=\n\xf7\xa2Q@'
tRp729
sg577
I9223372036854775807
ssI403
(dp730
g568
g579
sg570
g571
(g573
S'\x00\x00\x00\x00\x008\x1f@'
tRp731
sg575
g571
(g573
S'\xa4p=\n\xf7\xa2Q@'
tRp732
sg577
I9223372036854775807
ssI18
(dp733
g568
g579
sg570
g571
(g573
S'\x00\x00\x00\x00\x008\x1f@'
tRp734
sg575
g571
(g573
S'\xa4p=\n\xf7\xa2Q@'
tRp735
sg577
I9223372036854775807
sssI16
(dp736
I90
(dp737
g568
g579
sg570
g571
(g573
S'\x00\x00\x00\x00\x008O@'
tRp738
sg575
g571
(g573
S'\x1e\x85\xebQ\xb8\x97R@'
tRp739
sg577
I9223372036854775807
ssI27
(dp740
g568
g579
sg570
g571
(g573
S'\x00\x00\x00\x00\x008O@'
tRp741
sg575
g571
(g573
S'\x1e\x85\xebQ\xb8\x97R@'
tRp742
sg577
I9223372036854775807
ssI6
g646
sI519
(dp743
g568
g579
sg570
g571
(g573
S'\x00\x00\x00\x00\x008?@'
tRp744
sg575
g571
(g573
S'\x90\xc2\xf5(\xdc\x0bR@'
tRp745
sg577
I9223372036854775807
sssI17
(dp746
I368
(dp747
g568
g579
sg570
g571
(g573
S'\x00\x00\x00\x00\x008_@'
tRp748
sg575
g571
(g573
S'>\n\xd7\xa3p\xafS@'
tRp749
sg577
I9223372036854775807
ssI52
(dp750
g568
g579
sg570
g571
(g573
S'\x00\x00\x00\x00\x008?@'
tRp751
sg575
g571
(g573
S'\x90\xc2\xf5(\xdc\x0bR@'
tRp752
sg577
I9223372036854775807
ssI7
g656
ssI18
(dp753
I243
(dp754
g568
g579
sg570
g571
(g573
S'\x00\x00\x00\x00\x008/@'
tRp755
sg575
g571
(g573
S'G\xe1z\x14\xee\xc5Q@'
tRp756
sg577
I9223372036854775807
ssI406
(dp757
g568
g579
sg570
g571
(g573
S'\x00\x00\x00\x00\x008\x1f@'
tRp758
sg575
g571
(g573
S'\xa4p=\n\xf7\xa2Q@'
tRp759
sg577
I9223372036854775807
ssI15
g733
ssI19
(dp760
I3
g616
sI29
(dp761
g568
g569
sg570
g571
(g573
S'\x00\x00\x00\x00\x008O@'
tRp762
sg575
g571
(g573
S'\x99\x99\x99\x99\x99\x8fj@'
tRp763
sg577
I9223372036854775807
ssI93
(dp764
g568
g579
sg570
g571
(g573
S'\x00\x00\x00\x00\x008O@'
tRp765
sg575
g571
(g573
S'\x1e\x85\xebQ\xb8\x97R@'
tRp766
sg577
I9223372036854775807
sssI20
(dp767
I55
(dp768
g568
g579
sg570
g571
(g573
S'\x00\x00\x00\x00\x008?@'
tRp769
sg575
g571
(g573
S'\x90\xc2\xf5(\xdc\x0bR@'
tRp770
sg577
I9223372036854775807
ssI12
g700
sI527
(dp771
g568
g579
sg570
g571
(g573
S'\x00\x00\x00\x00\x008?@'
tRp772
sg575
g571
(g573
S'\x90\xc2\xf5(\xdc\x0bR@'
tRp773
sg577
I9223372036854775807
sssI21
(dp774
I368
(dp775
g568
g579
sg570
g571
(g573
S'\x00\x00\x00\x00\x008O@'
tRp776
sg575
g571
(g573
S'\x1e\x85\xebQ\xb8\x97R@'
tRp777
sg577
I9223372036854775807
ssI26
(dp778
g568
g579
sg570
g571
(g573
S'\x00\x00\x00\x00\x008O@'
tRp779
sg575
g571
(g573
S'\x1e\x85\xebQ\xb8\x97R@'
tRp780
sg577
I9223372036854775807
ssI339
(dp781
g568
g579
sg570
g571
(g573
S'\x00\x00\x00\x00\x008O@'
tRp782
sg575
g571
(g573
S'\x1e\x85\xebQ\xb8\x97R@'
tRp783
sg577
I9223372036854775807
sssI22
(dp784
I185
(dp785
g568
g579
sg570
g571
(g573
S'\x00\x00\x00\x00\x008_@'
tRp786
sg575
g571
(g573
S'>\n\xd7\xa3p\xafS@'
tRp787
sg577
I9223372036854775807
ssI373
(dp788
g568
g579
sg570
g571
(g573
S'\x00\x00\x00\x00\x008_@'
tRp789
sg575
g571
(g573
S'>\n\xd7\xa3p\xafS@'
tRp790
sg577
I9223372036854775807
ssI542
(dp791
g568
g579
sg570
g571
(g573
S'\x00\x00\x00\x00\x008_@'
tRp792
sg575
g571
(g573
S'>\n\xd7\xa3p\xafS@'
tRp793
sg577
I9223372036854775807
sssI23
(dp794
I34
(dp795
g568
g579
sg570
g571
(g573
S'\x00\x00\x00\x00\x008O@'
tRp796
sg575
g571
(g573
S'\x1e\x85\xebQ\xb8\x97R@'
tRp797
sg577
I9223372036854775807
ssI157
(dp798
g568
g593
sg570
g571
(g573
S'\x00\x00\x00\x00\x008O@'
tRp799
sg575
g571
(g573
S'\n\xd7\xa3p\xbdCa@'
tRp800
sg577
I9223372036854775807
ssI95
(dp801
g568
g593
sg570
g571
(g573
S'\x00\x00\x00\x00\x008O@'
tRp802
sg575
g571
(g573
S'\n\xd7\xa3p\xbdCa@'
tRp803
sg577
I9223372036854775807
sssI24
(dp804
I115
(dp805
g568
g579
sg570
g571
(g573
S'\x00\x00\x00\x00\x008?@'
tRp806
sg575
g571
(g573
S'\x90\xc2\xf5(\xdc\x0bR@'
tRp807
sg577
I9223372036854775807
ssI220
(dp808
g568
g579
sg570
g571
(g573
S'\x00\x00\x00\x00\x008?@'
tRp809
sg575
g571
(g573
S'\x90\xc2\xf5(\xdc\x0bR@'
tRp810
sg577
I9223372036854775807
ssI155
(dp811
g568
g579
sg570
g571
(g573
S'\x00\x00\x00\x00\x008?@'
tRp812
sg575
g571
(g573
S'\x90\xc2\xf5(\xdc\x0bR@'
tRp813
sg577
I9223372036854775807
sssI25
(dp814
I41
(dp815
g568
g579
sg570
g571
(g573
S'\x00\x00\x00\x00\x008/@'
tRp816
sg575
g571
(g573
S'G\xe1z\x14\xee\xc5Q@'
tRp817
sg577
I9223372036854775807
ssI28
(dp818
g568
g579
sg570
g571
(g573
S'\x00\x00\x00\x00\x008/@'
tRp819
sg575
g571
(g573
S'G\xe1z\x14\xee\xc5Q@'
tRp820
sg577
I9223372036854775807
ssI311
(dp821
g568
g579
sg570
g571
(g573
S'\x00\x00\x00\x00\x008/@'
tRp822
sg575
g571
(g573
S'G\xe1z\x14\xee\xc5Q@'
tRp823
sg577
I9223372036854775807
sssI26
(dp824
I273
(dp825
g568
g579
sg570
g571
(g573
S'\x00\x00\x00\x00\x008?@'
tRp826
sg575
g571
(g573
S'\x90\xc2\xf5(\xdc\x0bR@'
tRp827
sg577
I9223372036854775807
ssI252
(dp828
g568
g579
sg570
g571
(g573
S'\x00\x00\x00\x00\x008O@'
tRp829
sg575
g571
(g573
S'\x1e\x85\xebQ\xb8\x97R@'
tRp830
sg577
I9223372036854775807
ssI21
g778
sI223
(dp831
g568
g579
sg570
g571
(g573
S'\x00\x00\x00\x00\x008?@'
tRp832
sg575
g571
(g573
S'\x90\xc2\xf5(\xdc\x0bR@'
tRp833
sg577
I9223372036854775807
sssI27
(dp834
I16
g740
sI33
(dp835
g568
g579
sg570
g571
(g573
S'\x00\x00\x00\x00\x008?@'
tRp836
sg575
g571
(g573
S'\x90\xc2\xf5(\xdc\x0bR@'
tRp837
sg577
I9223372036854775807
ssI98
(dp838
g568
g593
sg570
g571
(g573
S'\x00\x00\x00\x00\x008O@'
tRp839
sg575
g571
(g573
S'\n\xd7\xa3p\xbdCa@'
tRp840
sg577
I9223372036854775807
ssI539
(dp841
g568
g593
sg570
g571
(g573
S'\x00\x00\x00\x00\x008?@'
tRp842
sg575
g571
(g573
S'\x85\xebQ\xb8\xde\xc1`@'
tRp843
sg577
I9223372036854775807
sssI28
(dp844
I25
g818
sI31
(dp845
g568
g579
sg570
g571
(g573
S'\x00\x00\x00\x00\x008/@'
tRp846
sg575
g571
(g573
S'G\xe1z\x14\xee\xc5Q@'
tRp847
sg577
I9223372036854775807
ssI313
(dp848
g568
g579
sg570
g571
(g573
S'\x00\x00\x00\x00\x008/@'
tRp849
sg575
g571
(g573
S'G\xe1z\x14\xee\xc5Q@'
tRp850
sg577
I9223372036854775807
ssI271
(dp851
g568
g579
sg570
g571
(g573
S'\x00\x00\x00\x00\x008/@'
tRp852
sg575
g571
(g573
S'G\xe1z\x14\xee\xc5Q@'
tRp853
sg577
I9223372036854775807
sssI29
(dp854
I57
(dp855
g568
g569
sg570
g571
(g573
S'\x00\x00\x00\x00\x008_@'
tRp856
sg575
g571
(g573
S'43333\x1fl@'
tRp857
sg577
I9223372036854775807
ssI19
g761
sI387
(dp858
g568
g579
sg570
g571
(g573
S'\x00\x00\x00\x00\x008_@'
tRp859
sg575
g571
(g573
S'>\n\xd7\xa3p\xafS@'
tRp860
sg577
I9223372036854775807
ssI517
(dp861
g568
g579
sg570
g571
(g573
S'\x00\x00\x00\x00\x008O@'
tRp862
sg575
g571
(g573
S'\x1e\x85\xebQ\xb8\x97R@'
tRp863
sg577
I9223372036854775807
sssI30
(dp864
I449
(dp865
g568
g579
sg570
g571
(g573
S'\x00\x00\x00\x00\x008/@'
tRp866
sg575
g571
(g573
S'G\xe1z\x14\xee\xc5Q@'
tRp867
sg577
I9223372036854775807
ssI455
(dp868
g568
g579
sg570
g571
(g573
S'\x00\x00\x00\x00\x008/@'
tRp869
sg575
g571
(g573
S'G\xe1z\x14\xee\xc5Q@'
tRp870
sg577
I9223372036854775807
ssI191
(dp871
g568
g579
sg570
g571
(g573
S'\x00\x00\x00\x00\x008/@'
tRp872
sg575
g571
(g573
S'G\xe1z\x14\xee\xc5Q@'
tRp873
sg577
I9223372036854775807
ssI143
(dp874
g568
g579
sg570
g571
(g573
S'\x00\x00\x00\x00\x008/@'
tRp875
sg575
g571
(g573
S'G\xe1z\x14\xee\xc5Q@'
tRp876
sg577
I9223372036854775807
sssI31
(dp877
I28
g845
sI277
(dp878
g568
g579
sg570
g571
(g573
S'\x00\x00\x00\x00\x008/@'
tRp879
sg575
g571
(g573
S'G\xe1z\x14\xee\xc5Q@'
tRp880
sg577
I9223372036854775807
ssI318
(dp881
g568
g579
sg570
g571
(g573
S'\x00\x00\x00\x00\x008/@'
tRp882
sg575
g571
(g573
S'G\xe1z\x14\xee\xc5Q@'
tRp883
sg577
I9223372036854775807
sssI32
(dp884
I48
(dp885
g568
g579
sg570
g571
(g573
S'\x00\x00\x00\x00\x008O@'
tRp886
sg575
g571
(g573
S'\x1e\x85\xebQ\xb8\x97R@'
tRp887
sg577
I9223372036854775807
ssI106
(dp888
g568
g593
sg570
g571
(g573
S'\x00\x00\x00\x00\x008O@'
tRp889
sg575
g571
(g573
S'\n\xd7\xa3p\xbdCa@'
tRp890
sg577
I9223372036854775807
ssI495
(dp891
g568
g593
sg570
g571
(g573
S'\x00\x00\x00\x00\x008O@'
tRp892
sg575
g571
(g573
S'\n\xd7\xa3p\xbdCa@'
tRp893
sg577
I9223372036854775807
sssI33
(dp894
I546
(dp895
g568
g579
sg570
g571
(g573
S'\x00\x00\x00\x00\x008?@'
tRp896
sg575
g571
(g573
S'\x90\xc2\xf5(\xdc\x0bR@'
tRp897
sg577
I9223372036854775807
ssI27
g835
sI39
(dp898
g568
g579
sg570
g571
(g573
S'\x00\x00\x00\x00\x008?@'
tRp899
sg575
g571
(g573
S'\x90\xc2\xf5(\xdc\x0bR@'
tRp900
sg577
I9223372036854775807
sssI34
(dp901
I73
(dp902
g568
g579
sg570
g571
(g573
S'\x00\x00\x00\x00\x008?@'
tRp903
sg575
g571
(g573
S'\x90\xc2\xf5(\xdc\x0bR@'
tRp904
sg577
I9223372036854775807
ssI42
(dp905
g568
g579
sg570
g571
(g573
S'\x00\x00\x00\x00\x008?@'
tRp906
sg575
g571
(g573
S'\x90\xc2\xf5(\xdc\x0bR@'
tRp907
sg577
I9223372036854775807
ssI499
(dp908
g568
g579
sg570
g571
(g573
S'\x00\x00\x00\x00\x008O@'
tRp909
sg575
g571
(g573
S'\x1e\x85\xebQ\xb8\x97R@'
tRp910
sg577
I9223372036854775807
ssI23
g795
ssI35
(dp911
I362
(dp912
g568
g579
sg570
g571
(g573
S'\x00\x00\x00\x00\x008?@'
tRp913
sg575
g571
(g573
S'\x90\xc2\xf5(\xdc\x0bR@'
tRp914
sg577
I9223372036854775807
ssI404
(dp915
g568
g579
sg570
g571
(g573
S'\x00\x00\x00\x00\x008?@'
tRp916
sg575
g571
(g573
S'\x90\xc2\xf5(\xdc\x0bR@'
tRp917
sg577
I9223372036854775807
ssI350
(dp918
g568
g579
sg570
g571
(g573
S'\x00\x00\x00\x00\x008?@'
tRp919
sg575
g571
(g573
S'\x90\xc2\xf5(\xdc\x0bR@'
tRp920
sg577
I9223372036854775807
ssI311
(dp921
g568
g579
sg570
g571
(g573
S'\x00\x00\x00\x00\x008?@'
tRp922
sg575
g571
(g573
S'\x90\xc2\xf5(\xdc\x0bR@'
tRp923
sg577
I9223372036854775807
sssI36
(dp924
I1
g589
sI76
(dp925
g568
g579
sg570
g571
(g573
S'\x00\x00\x00\x00\x008?@'
tRp926
sg575
g571
(g573
S'\x90\xc2\xf5(\xdc\x0bR@'
tRp927
sg577
I9223372036854775807
ssI44
(dp928
g568
g579
sg570
g571
(g573
S'\x00\x00\x00\x00\x008?@'
tRp929
sg575
g571
(g573
S'\x90\xc2\xf5(\xdc\x0bR@'
tRp930
sg577
I9223372036854775807
sssI37
(dp931
I65
(dp932
g568
g579
sg570
g571
(g573
S'\x00\x00\x00\x00\x008/@'
tRp933
sg575
g571
(g573
S'G\xe1z\x14\xee\xc5Q@'
tRp934
sg577
I9223372036854775807
ssI71
(dp935
g568
g579
sg570
g571
(g573
S'\x00\x00\x00\x00\x008/@'
tRp936
sg575
g571
(g573
S'G\xe1z\x14\xee\xc5Q@'
tRp937
sg577
I9223372036854775807
ssI363
(dp938
g568
g579
sg570
g571
(g573
S'\x00\x00\x00\x00\x008/@'
tRp939
sg575
g571
(g573
S'G\xe1z\x14\xee\xc5Q@'
tRp940
sg577
I9223372036854775807
ssI319
(dp941
g568
g579
sg570
g571
(g573
S'\x00\x00\x00\x00\x008/@'
tRp942
sg575
g571
(g573
S'G\xe1z\x14\xee\xc5Q@'
tRp943
sg577
I9223372036854775807
sssI38
(dp944
I330
(dp945
g568
g579
sg570
g571
(g573
S'\x00\x00\x00\x00\x008/@'
tRp946
sg575
g571
(g573
S'G\xe1z\x14\xee\xc5Q@'
tRp947
sg577
I9223372036854775807
ssI299
(dp948
g568
g579
sg570
g571
(g573
S'\x00\x00\x00\x00\x008/@'
tRp949
sg575
g571
(g573
S'G\xe1z\x14\xee\xc5Q@'
tRp950
sg577
I9223372036854775807
ssI286
(dp951
g568
g579
sg570
g571
(g573
S'\x00\x00\x00\x00\x008/@'
tRp952
sg575
g571
(g573
S'G\xe1z\x14\xee\xc5Q@'
tRp953
sg577
I9223372036854775807
sssI39
(dp954
I33
g898
sI114
(dp955
g568
g579
sg570
g571
(g573
S'\x00\x00\x00\x00\x008O@'
tRp956
sg575
g571
(g573
S'\x1e\x85\xebQ\xb8\x97R@'
tRp957
sg577
I9223372036854775807
ssI4
g632
sI49
(dp958
g568
g579
sg570
g571
(g573
S'\x00\x00\x00\x00\x008?@'
tRp959
sg575
g571
(g573
S'\x90\xc2\xf5(\xdc\x0bR@'
tRp960
sg577
I9223372036854775807
sssI40
(dp961
I288
(dp962
g568
g579
sg570
g571
(g573
S'\x00\x00\x00\x00\x008/@'
tRp963
sg575
g571
(g573
S'G\xe1z\x14\xee\xc5Q@'
tRp964
sg577
I9223372036854775807
ssI46
(dp965
g568
g579
sg570
g571
(g573
S'\x00\x00\x00\x00\x008/@'
tRp966
sg575
g571
(g573
S'G\xe1z\x14\xee\xc5Q@'
tRp967
sg577
I9223372036854775807
ssI358
(dp968
g568
g579
sg570
g571
(g573
S'\x00\x00\x00\x00\x008/@'
tRp969
sg575
g571
(g573
S'G\xe1z\x14\xee\xc5Q@'
tRp970
sg577
I9223372036854775807
sssI41
(dp971
I25
g815
sI265
(dp972
g568
g579
sg570
g571
(g573
S'\x00\x00\x00\x00\x008/@'
tRp973
sg575
g571
(g573
S'G\xe1z\x14\xee\xc5Q@'
tRp974
sg577
I9223372036854775807
ssI534
(dp975
g568
g579
sg570
g571
(g573
S'\x00\x00\x00\x00\x008/@'
tRp976
sg575
g571
(g573
S'G\xe1z\x14\xee\xc5Q@'
tRp977
sg577
I9223372036854775807
ssI271
(dp978
g568
g579
sg570
g571
(g573
S'\x00\x00\x00\x00\x008/@'
tRp979
sg575
g571
(g573
S'G\xe1z\x14\xee\xc5Q@'
tRp980
sg577
I9223372036854775807
sssI42
(dp981
I160
(dp982
g568
g579
sg570
g571
(g573
S'\x00\x00\x00\x00\x008?@'
tRp983
sg575
g571
(g573
S'\x90\xc2\xf5(\xdc\x0bR@'
tRp984
sg577
I9223372036854775807
ssI34
g905
sI51
(dp985
g568
g579
sg570
g571
(g573
S'\x00\x00\x00\x00\x008?@'
tRp986
sg575
g571
(g573
S'\x90\xc2\xf5(\xdc\x0bR@'
tRp987
sg577
I9223372036854775807
sssI43
(dp988
I442
(dp989
g568
g579
sg570
g571
(g573
S'\x00\x00\x00\x00\x008\x1f@'
tRp990
sg575
g571
(g573
S'\xa4p=\n\xf7\xa2Q@'
tRp991
sg577
I9223372036854775807
ssI299
(dp992
g568
g579
sg570
g571
(g573
S'\x00\x00\x00\x00\x008\x1f@'
tRp993
sg575
g571
(g573
S'\xa4p=\n\xf7\xa2Q@'
tRp994
sg577
I9223372036854775807
ssI45
(dp995
g568
g579
sg570
g571
(g573
S'\x00\x00\x00\x00\x008\x1f@'
tRp996
sg575
g571
(g573
S'\xa4p=\n\xf7\xa2Q@'
tRp997
sg577
I9223372036854775807
sssI44
(dp998
I52
(dp999
g568
g579
sg570
g571
(g573
S'\x00\x00\x00\x00\x008?@'
tRp1000
sg575
g571
(g573
S'\x90\xc2\xf5(\xdc\x0bR@'
tRp1001
sg577
I9223372036854775807
ssI82
(dp1002
g568
g579
sg570
g571
(g573
S'\x00\x00\x00\x00\x008?@'
tRp1003
sg575
g571
(g573
S'\x90\xc2\xf5(\xdc\x0bR@'
tRp1004
sg577
I9223372036854775807
ssI36
g928
sI7
g653
ssI45
(dp1005
I338
(dp1006
g568
g579
sg570
g571
(g573
S'\x00\x00\x00\x00\x008/@'
tRp1007
sg575
g571
(g573
S'G\xe1z\x14\xee\xc5Q@'
tRp1008
sg577
I9223372036854775807
ssI43
g995
sI445
(dp1009
g568
g579
sg570
g571
(g573
S'\x00\x00\x00\x00\x008\x1f@'
tRp1010
sg575
g571
(g573
S'\xa4p=\n\xf7\xa2Q@'
tRp1011
sg577
I9223372036854775807
sssI46
(dp1012
I40
g965
sI50
(dp1013
g568
g579
sg570
g571
(g573
S'\x00\x00\x00\x00\x008/@'
tRp1014
sg575
g571
(g573
S'G\xe1z\x14\xee\xc5Q@'
tRp1015
sg577
I9223372036854775807
ssI340
(dp1016
g568
g579
sg570
g571
(g573
S'\x00\x00\x00\x00\x008/@'
tRp1017
sg575
g571
(g573
S'G\xe1z\x14\xee\xc5Q@'
tRp1018
sg577
I9223372036854775807
ssI294
(dp1019
g568
g579
sg570
g571
(g573
S'\x00\x00\x00\x00\x008/@'
tRp1020
sg575
g571
(g573
S'G\xe1z\x14\xee\xc5Q@'
tRp1021
sg577
I9223372036854775807
sssI47
(dp1022
I512
(dp1023
g568
g593
sg570
g571
(g573
S'\x00\x00\x00\x00\x008O@'
tRp1024
sg575
g571
(g573
S'\n\xd7\xa3p\xbdCa@'
tRp1025
sg577
I9223372036854775807
ssI60
(dp1026
g568
g579
sg570
g571
(g573
S'\x00\x00\x00\x00\x008O@'
tRp1027
sg575
g571
(g573
S'\x1e\x85\xebQ\xb8\x97R@'
tRp1028
sg577
I9223372036854775807
ssI540
(dp1029
g568
g579
sg570
g571
(g573
S'\x00\x00\x00\x00\x008o@'
tRp1030
sg575
g571
(g573
S'z\x14\xaeG\xe1\xdeU@'
tRp1031
sg577
I9223372036854775807
sssI48
(dp1032
I32
g885
sI513
(dp1033
g568
g579
sg570
g571
(g573
S'\x00\x00\x00\x00\x008O@'
tRp1034
sg575
g571
(g573
S'\x1e\x85\xebQ\xb8\x97R@'
tRp1035
sg577
I9223372036854775807
ssI61
(dp1036
g568
g579
sg570
g571
(g573
S'\x00\x00\x00\x00\x008O@'
tRp1037
sg575
g571
(g573
S'\x1e\x85\xebQ\xb8\x97R@'
tRp1038
sg577
I9223372036854775807
ssI121
(dp1039
g568
g579
sg570
g571
(g573
S'\x00\x00\x00\x00\x008O@'
tRp1040
sg575
g571
(g573
S'\x1e\x85\xebQ\xb8\x97R@'
tRp1041
sg577
I9223372036854775807
sssI49
(dp1042
I55
(dp1043
g568
g579
sg570
g571
(g573
S'\x00\x00\x00\x00\x008?@'
tRp1044
sg575
g571
(g573
S'\x90\xc2\xf5(\xdc\x0bR@'
tRp1045
sg577
I9223372036854775807
ssI12
g703
sI39
g958
ssI50
(dp1046
I300
(dp1047
g568
g593
sg570
g571
(g573
S'\x00\x00\x00\x00\x008/@'
tRp1048
sg575
g571
(g573
S'\xc2\xf5(\\\xef\x80`@'
tRp1049
sg577
I9223372036854775807
ssI46
g1013
sI343
(dp1050
g568
g593
sg570
g571
(g573
S'\x00\x00\x00\x00\x008/@'
tRp1051
sg575
g571
(g573
S'\xc2\xf5(\\\xef\x80`@'
tRp1052
sg577
I9223372036854775807
sssI51
(dp1053
I89
(dp1054
g568
g579
sg570
g571
(g573
S'\x00\x00\x00\x00\x008?@'
tRp1055
sg575
g571
(g573
S'\x90\xc2\xf5(\xdc\x0bR@'
tRp1056
sg577
I9223372036854775807
ssI42
g985
sI518
(dp1057
g568
g579
sg570
g571
(g573
S'\x00\x00\x00\x00\x008O@'
tRp1058
sg575
g571
(g573
S'\x1e\x85\xebQ\xb8\x97R@'
tRp1059
sg577
I9223372036854775807
sssI52
(dp1060
I17
g750
sI91
(dp1061
g568
g579
sg570
g571
(g573
S'\x00\x00\x00\x00\x008?@'
tRp1062
sg575
g571
(g573
S'\x90\xc2\xf5(\xdc\x0bR@'
tRp1063
sg577
I9223372036854775807
ssI44
g999
ssI53
(dp1064
I128
(dp1065
g568
g569
sg570
g571
(g573
S'\x00\x00\x00\x00\x008O@'
tRp1066
sg575
g571
(g573
S'\x99\x99\x99\x99\x99\x8fj@'
tRp1067
sg577
I9223372036854775807
ssI522
(dp1068
g568
g569
sg570
g571
(g573
S'\x00\x00\x00\x00\x008O@'
tRp1069
sg575
g571
(g573
S'\x99\x99\x99\x99\x99\x8fj@'
tRp1070
sg577
I9223372036854775807
ssI67
(dp1071
g568
g579
sg570
g571
(g573
S'\x00\x00\x00\x00\x008O@'
tRp1072
sg575
g571
(g573
S'\x1e\x85\xebQ\xb8\x97R@'
tRp1073
sg577
I9223372036854775807
sssI54
(dp1074
I456
(dp1075
g568
g579
sg570
g571
(g573
S'\x00\x00\x00\x00\x008\x1f@'
tRp1076
sg575
g571
(g573
S'\xa4p=\n\xf7\xa2Q@'
tRp1077
sg577
I9223372036854775807
ssI56
(dp1078
g568
g579
sg570
g571
(g573
S'\x00\x00\x00\x00\x008\x1f@'
tRp1079
sg575
g571
(g573
S'\xa4p=\n\xf7\xa2Q@'
tRp1080
sg577
I9223372036854775807
ssI181
(dp1081
g568
g579
sg570
g571
(g573
S'\x00\x00\x00\x00\x008\x1f@'
tRp1082
sg575
g571
(g573
S'\xa4p=\n\xf7\xa2Q@'
tRp1083
sg577
I9223372036854775807
sssI55
(dp1084
I49
g1043
sI132
(dp1085
g568
g579
sg570
g571
(g573
S'\x00\x00\x00\x00\x008O@'
tRp1086
sg575
g571
(g573
S'\x1e\x85\xebQ\xb8\x97R@'
tRp1087
sg577
I9223372036854775807
ssI20
g768
sI69
(dp1088
g568
g579
sg570
g571
(g573
S'\x00\x00\x00\x00\x008O@'
tRp1089
sg575
g571
(g573
S'\x1e\x85\xebQ\xb8\x97R@'
tRp1090
sg577
I9223372036854775807
sssI56
(dp1091
I458
(dp1092
g568
g579
sg570
g571
(g573
S'\x00\x00\x00\x00\x008\x1f@'
tRp1093
sg575
g571
(g573
S'\xa4p=\n\xf7\xa2Q@'
tRp1094
sg577
I9223372036854775807
ssI58
(dp1095
g568
g579
sg570
g571
(g573
S'\x00\x00\x00\x00\x008\x1f@'
tRp1096
sg575
g571
(g573
S'\xa4p=\n\xf7\xa2Q@'
tRp1097
sg577
I9223372036854775807
ssI198
(dp1098
g568
g579
sg570
g571
(g573
S'\x00\x00\x00\x00\x008\x1f@'
tRp1099
sg575
g571
(g573
S'\xa4p=\n\xf7\xa2Q@'
tRp1100
sg577
I9223372036854775807
ssI54
g1078
ssI57
(dp1101
I529
(dp1102
g568
g593
sg570
g571
(g573
S'\x00\x00\x00\x00\x008O@'
tRp1103
sg575
g571
(g573
S'\n\xd7\xa3p\xbdCa@'
tRp1104
sg577
I9223372036854775807
ssI244
(dp1105
g568
g569
sg570
g571
(g573
S'\x00\x00\x00\x00\x008_@'
tRp1106
sg575
g571
(g573
S'43333\x1fl@'
tRp1107
sg577
I9223372036854775807
ssI29
g855
sI70
(dp1108
g568
g569
sg570
g571
(g573
S'\x00\x00\x00\x00\x008O@'
tRp1109
sg575
g571
(g573
S'\x99\x99\x99\x99\x99\x8fj@'
tRp1110
sg577
I9223372036854775807
sssI58
(dp1111
I56
g1095
sI202
(dp1112
g568
g579
sg570
g571
(g573
S'\x00\x00\x00\x00\x008\x1f@'
tRp1113
sg575
g571
(g573
S'\xa4p=\n\xf7\xa2Q@'
tRp1114
sg577
I9223372036854775807
ssI59
(dp1115
g568
g579
sg570
g571
(g573
S'\x00\x00\x00\x00\x008\x1f@'
tRp1116
sg575
g571
(g573
S'\xa4p=\n\xf7\xa2Q@'
tRp1117
sg577
I9223372036854775807
ssI460
(dp1118
g568
g579
sg570
g571
(g573
S'\x00\x00\x00\x00\x008\x1f@'
tRp1119
sg575
g571
(g573
S'\xa4p=\n\xf7\xa2Q@'
tRp1120
sg577
I9223372036854775807
sssI59
(dp1121
I464
(dp1122
g568
g579
sg570
g571
(g573
S'\x00\x00\x00\x00\x008\x1f@'
tRp1123
sg575
g571
(g573
S'\xa4p=\n\xf7\xa2Q@'
tRp1124
sg577
I9223372036854775807
ssI58
g1115
sI205
(dp1125
g568
g579
sg570
g571
(g573
S'\x00\x00\x00\x00\x008\x1f@'
tRp1126
sg575
g571
(g573
S'\xa4p=\n\xf7\xa2Q@'
tRp1127
sg577
I9223372036854775807
ssI62
(dp1128
g568
g579
sg570
g571
(g573
S'\x00\x00\x00\x00\x008\x1f@'
tRp1129
sg575
g571
(g573
S'\xa4p=\n\xf7\xa2Q@'
tRp1130
sg577
I9223372036854775807
sssI60
(dp1131
I75
(dp1132
g568
g579
sg570
g571
(g573
S'\x00\x00\x00\x00\x008O@'
tRp1133
sg575
g571
(g573
S'\x1e\x85\xebQ\xb8\x97R@'
tRp1134
sg577
I9223372036854775807
ssI532
(dp1135
g568
g579
sg570
g571
(g573
S'\x00\x00\x00\x00\x008O@'
tRp1136
sg575
g571
(g573
S'\x1e\x85\xebQ\xb8\x97R@'
tRp1137
sg577
I9223372036854775807
ssI47
g1026
ssI61
(dp1138
I48
g1036
sI76
(dp1139
g568
g579
sg570
g571
(g573
S'\x00\x00\x00\x00\x008O@'
tRp1140
sg575
g571
(g573
S'\x1e\x85\xebQ\xb8\x97R@'
tRp1141
sg577
I9223372036854775807
ssI533
(dp1142
g568
g579
sg570
g571
(g573
S'\x00\x00\x00\x00\x008O@'
tRp1143
sg575
g571
(g573
S'\x1e\x85\xebQ\xb8\x97R@'
tRp1144
sg577
I9223372036854775807
ssI142
(dp1145
g568
g579
sg570
g571
(g573
S'\x00\x00\x00\x00\x008O@'
tRp1146
sg575
g571
(g573
S'\x1e\x85\xebQ\xb8\x97R@'
tRp1147
sg577
I9223372036854775807
sssI62
(dp1148
I208
(dp1149
g568
g579
sg570
g571
(g573
S'\x00\x00\x00\x00\x008\x1f@'
tRp1150
sg575
g571
(g573
S'\xa4p=\n\xf7\xa2Q@'
tRp1151
sg577
I9223372036854775807
ssI59
g1128
sI467
(dp1152
g568
g579
sg570
g571
(g573
S'\x00\x00\x00\x00\x008\x1f@'
tRp1153
sg575
g571
(g573
S'\xa4p=\n\xf7\xa2Q@'
tRp1154
sg577
I9223372036854775807
sssI63
(dp1155
I64
(dp1156
g568
g569
sg570
g571
(g573
S'\x00\x00\x00\x00\x008\x0f@'
tRp1157
sg575
g571
(g573
S'\x9a\x99\x99\x99\xf9\x18i@'
tRp1158
sg577
I9223372036854775807
ssI126
(dp1159
g568
g579
sg570
g571
(g573
S'\x00\x00\x00\x00\x008\x0f@'
tRp1160
sg575
g571
(g573
S'R\xb8\x1e\x85{\x91Q@'
tRp1161
sg577
I9223372036854775807
ssI471
(dp1162
g568
g569
sg570
g571
(g573
S'\x00\x00\x00\x00\x008\x1f@'
tRp1163
sg575
g571
(g573
S'3333\xf31i@'
tRp1164
sg577
I9223372036854775807
sssI64
(dp1165
I66
(dp1166
g568
g579
sg570
g571
(g573
S'\x00\x00\x00\x00\x008\x0f@'
tRp1167
sg575
g571
(g573
S'R\xb8\x1e\x85{\x91Q@'
tRp1168
sg577
I9223372036854775807
ssI127
(dp1169
g568
g569
sg570
g571
(g573
S'\x00\x00\x00\x00\x008\x0f@'
tRp1170
sg575
g571
(g573
S'\x9a\x99\x99\x99\xf9\x18i@'
tRp1171
sg577
I9223372036854775807
ssI63
g1156
ssI65
(dp1172
I314
(dp1173
g568
g579
sg570
g571
(g573
S'\x00\x00\x00\x00\x008/@'
tRp1174
sg575
g571
(g573
S'G\xe1z\x14\xee\xc5Q@'
tRp1175
sg577
I9223372036854775807
ssI37
g932
sI359
(dp1176
g568
g579
sg570
g571
(g573
S'\x00\x00\x00\x00\x008/@'
tRp1177
sg575
g571
(g573
S'G\xe1z\x14\xee\xc5Q@'
tRp1178
sg577
I9223372036854775807
sssI66
(dp1179
I64
g1166
sI474
(dp1180
g568
g579
sg570
g571
(g573
S'\x00\x00\x00\x00\x008\x1f@'
tRp1181
sg575
g571
(g573
S'\xa4p=\n\xf7\xa2Q@'
tRp1182
sg577
I9223372036854775807
ssI68
(dp1183
g568
g579
sg570
g571
(g573
S'\x00\x00\x00\x00\x008\x1f@'
tRp1184
sg575
g571
(g573
S'\xa4p=\n\xf7\xa2Q@'
tRp1185
sg577
I9223372036854775807
ssI150
(dp1186
g568
g579
sg570
g571
(g573
S'\x00\x00\x00\x00\x008\x0f@'
tRp1187
sg575
g571
(g573
S'R\xb8\x1e\x85{\x91Q@'
tRp1188
sg577
I9223372036854775807
sssI67
(dp1189
I72
(dp1190
g568
g579
sg570
g571
(g573
S'\x00\x00\x00\x00\x008?@'
tRp1191
sg575
g571
(g573
S'\x90\xc2\xf5(\xdc\x0bR@'
tRp1192
sg577
I9223372036854775807
ssI196
(dp1193
g568
g579
sg570
g571
(g573
S'\x00\x00\x00\x00\x008?@'
tRp1194
sg575
g571
(g573
S'\x90\xc2\xf5(\xdc\x0bR@'
tRp1195
sg577
I9223372036854775807
ssI53
g1071
sI541
(dp1196
g568
g579
sg570
g571
(g573
S'\x00\x00\x00\x00\x008O@'
tRp1197
sg575
g571
(g573
S'\x1e\x85\xebQ\xb8\x97R@'
tRp1198
sg577
I9223372036854775807
sssI68
(dp1199
I66
g1183
sI219
(dp1200
g568
g579
sg570
g571
(g573
S'\x00\x00\x00\x00\x008\x1f@'
tRp1201
sg575
g571
(g573
S'\xa4p=\n\xf7\xa2Q@'
tRp1202
sg577
I9223372036854775807
ssI475
(dp1203
g568
g579
sg570
g571
(g573
S'\x00\x00\x00\x00\x008\x1f@'
tRp1204
sg575
g571
(g573
S'\xa4p=\n\xf7\xa2Q@'
tRp1205
sg577
I9223372036854775807
sssI69
(dp1206
I152
(dp1207
g568
g579
sg570
g571
(g573
S'\x00\x00\x00\x00\x008O@'
tRp1208
sg575
g571
(g573
S'\x1e\x85\xebQ\xb8\x97R@'
tRp1209
sg577
I9223372036854775807
ssI543
(dp1210
g568
g579
sg570
g571
(g573
S'\x00\x00\x00\x00\x008O@'
tRp1211
sg575
g571
(g573
S'\x1e\x85\xebQ\xb8\x97R@'
tRp1212
sg577
I9223372036854775807
ssI84
(dp1213
g568
g579
sg570
g571
(g573
S'\x00\x00\x00\x00\x008O@'
tRp1214
sg575
g571
(g573
S'\x1e\x85\xebQ\xb8\x97R@'
tRp1215
sg577
I9223372036854775807
ssI55
g1088
ssI70
(dp1216
I57
g1108
sI548
(dp1217
g568
g579
sg570
g571
(g573
S'\x00\x00\x00\x00\x008O@'
tRp1218
sg575
g571
(g573
S'\x1e\x85\xebQ\xb8\x97R@'
tRp1219
sg577
I9223372036854775807
ssI87
(dp1220
g568
g569
sg570
g571
(g573
S'\x00\x00\x00\x00\x008O@'
tRp1221
sg575
g571
(g573
S'\x99\x99\x99\x99\x99\x8fj@'
tRp1222
sg577
I9223372036854775807
sssI71
(dp1223
I367
(dp1224
g568
g579
sg570
g571
(g573
S'\x00\x00\x00\x00\x008/@'
tRp1225
sg575
g571
(g573
S'G\xe1z\x14\xee\xc5Q@'
tRp1226
sg577
I9223372036854775807
ssI37
g935
sI325
(dp1227
g568
g579
sg570
g571
(g573
S'\x00\x00\x00\x00\x008/@'
tRp1228
sg575
g571
(g573
S'G\xe1z\x14\xee\xc5Q@'
tRp1229
sg577
I9223372036854775807
sssI72
(dp1230
I80
(dp1231
g568
g579
sg570
g571
(g573
S'\x00\x00\x00\x00\x008?@'
tRp1232
sg575
g571
(g573
S'\x90\xc2\xf5(\xdc\x0bR@'
tRp1233
sg577
I9223372036854775807
ssI67
g1190
sI255
(dp1234
g568
g579
sg570
g571
(g573
S'\x00\x00\x00\x00\x008?@'
tRp1235
sg575
g571
(g573
S'\x90\xc2\xf5(\xdc\x0bR@'
tRp1236
sg577
I9223372036854775807
sssI73
(dp1237
I160
(dp1238
g568
g579
sg570
g571
(g573
S'\x00\x00\x00\x00\x008?@'
tRp1239
sg575
g571
(g573
S'\x90\xc2\xf5(\xdc\x0bR@'
tRp1240
sg577
I9223372036854775807
ssI34
g902
sI109
(dp1241
g568
g579
sg570
g571
(g573
S'\x00\x00\x00\x00\x008?@'
tRp1242
sg575
g571
(g573
S'\x90\xc2\xf5(\xdc\x0bR@'
tRp1243
sg577
I9223372036854775807
sssI74
(dp1244
I11
g690
sI139
(dp1245
g568
g579
sg570
g571
(g573
S'\x00\x00\x00\x00\x008\x1f@'
tRp1246
sg575
g571
(g573
S'\xa4p=\n\xf7\xa2Q@'
tRp1247
sg577
I9223372036854775807
ssI399
(dp1248
g568
g579
sg570
g571
(g573
S'\x00\x00\x00\x00\x008\x1f@'
tRp1249
sg575
g571
(g573
S'\xa4p=\n\xf7\xa2Q@'
tRp1250
sg577
I9223372036854775807
ssI15
g727
ssI75
(dp1251
I0
g567
sI90
(dp1252
g568
g569
sg570
g571
(g573
S'\x00\x00\x00\x00\x008O@'
tRp1253
sg575
g571
(g573
S'\x99\x99\x99\x99\x99\x8fj@'
tRp1254
sg577
I9223372036854775807
ssI60
g1132
ssI76
(dp1255
I82
(dp1256
g568
g579
sg570
g571
(g573
S'\x00\x00\x00\x00\x008?@'
tRp1257
sg575
g571
(g573
S'\x90\xc2\xf5(\xdc\x0bR@'
tRp1258
sg577
I9223372036854775807
ssI36
g925
sI61
g1139
sI159
(dp1259
g568
g579
sg570
g571
(g573
S'\x00\x00\x00\x00\x008O@'
tRp1260
sg575
g571
(g573
S'\x1e\x85\xebQ\xb8\x97R@'
tRp1261
sg577
I9223372036854775807
sssI77
(dp1262
I162
(dp1263
g568
g593
sg570
g571
(g573
S'\x00\x00\x00\x00\x008O@'
tRp1264
sg575
g571
(g573
S'\n\xd7\xa3p\xbdCa@'
tRp1265
sg577
I9223372036854775807
ssI3
g619
sI93
(dp1266
g568
g579
sg570
g571
(g573
S'\x00\x00\x00\x00\x008O@'
tRp1267
sg575
g571
(g573
S'\x1e\x85\xebQ\xb8\x97R@'
tRp1268
sg577
I9223372036854775807
sssI78
(dp1269
I83
(dp1270
g568
g579
sg570
g571
(g573
S'\x00\x00\x00\x00\x008/@'
tRp1271
sg575
g571
(g573
S'G\xe1z\x14\xee\xc5Q@'
tRp1272
sg577
I9223372036854775807
ssI372
(dp1273
g568
g579
sg570
g571
(g573
S'\x00\x00\x00\x00\x008/@'
tRp1274
sg575
g571
(g573
S'G\xe1z\x14\xee\xc5Q@'
tRp1275
sg577
I9223372036854775807
ssI333
(dp1276
g568
g579
sg570
g571
(g573
S'\x00\x00\x00\x00\x008/@'
tRp1277
sg575
g571
(g573
S'G\xe1z\x14\xee\xc5Q@'
tRp1278
sg577
I9223372036854775807
sssI79
(dp1279
I374
(dp1280
g568
g579
sg570
g571
(g573
S'\x00\x00\x00\x00\x008/@'
tRp1281
sg575
g571
(g573
S'G\xe1z\x14\xee\xc5Q@'
tRp1282
sg577
I9223372036854775807
ssI358
(dp1283
g568
g579
sg570
g571
(g573
S'\x00\x00\x00\x00\x008/@'
tRp1284
sg575
g571
(g573
S'G\xe1z\x14\xee\xc5Q@'
tRp1285
sg577
I9223372036854775807
ssI85
(dp1286
g568
g579
sg570
g571
(g573
S'\x00\x00\x00\x00\x008/@'
tRp1287
sg575
g571
(g573
S'G\xe1z\x14\xee\xc5Q@'
tRp1288
sg577
I9223372036854775807
sssI80
(dp1289
I72
g1231
sI5
g636
sI94
(dp1290
g568
g579
sg570
g571
(g573
S'\x00\x00\x00\x00\x008O@'
tRp1291
sg575
g571
(g573
S'\x1e\x85\xebQ\xb8\x97R@'
tRp1292
sg577
I9223372036854775807
ssI117
(dp1293
g568
g579
sg570
g571
(g573
S'\x00\x00\x00\x00\x008?@'
tRp1294
sg575
g571
(g573
S'\x90\xc2\xf5(\xdc\x0bR@'
tRp1295
sg577
I9223372036854775807
sssI81
(dp1296
I148
(dp1297
g568
g593
sg570
g571
(g573
S'\x00\x00\x00\x00\x008O@'
tRp1298
sg575
g571
(g573
S'\n\xd7\xa3p\xbdCa@'
tRp1299
sg577
I9223372036854775807
ssI174
(dp1300
g568
g593
sg570
g571
(g573
S'\x00\x00\x00\x00\x008?@'
tRp1301
sg575
g571
(g573
S'\x85\xebQ\xb8\xde\xc1`@'
tRp1302
sg577
I9223372036854775807
ssI223
(dp1303
g568
g579
sg570
g571
(g573
S'\x00\x00\x00\x00\x008?@'
tRp1304
sg575
g571
(g573
S'\x90\xc2\xf5(\xdc\x0bR@'
tRp1305
sg577
I9223372036854775807
sssI82
(dp1306
I76
g1256
sI91
(dp1307
g568
g579
sg570
g571
(g573
S'\x00\x00\x00\x00\x008?@'
tRp1308
sg575
g571
(g573
S'\x90\xc2\xf5(\xdc\x0bR@'
tRp1309
sg577
I9223372036854775807
ssI44
g1002
ssI83
(dp1310
I337
(dp1311
g568
g579
sg570
g571
(g573
S'\x00\x00\x00\x00\x008/@'
tRp1312
sg575
g571
(g573
S'G\xe1z\x14\xee\xc5Q@'
tRp1313
sg577
I9223372036854775807
ssI86
(dp1314
g568
g579
sg570
g571
(g573
S'\x00\x00\x00\x00\x008/@'
tRp1315
sg575
g571
(g573
S'G\xe1z\x14\xee\xc5Q@'
tRp1316
sg577
I9223372036854775807
ssI78
g1270
sI377
(dp1317
g568
g579
sg570
g571
(g573
S'\x00\x00\x00\x00\x008/@'
tRp1318
sg575
g571
(g573
S'G\xe1z\x14\xee\xc5Q@'
tRp1319
sg577
I9223372036854775807
sssI84
(dp1320
I9
g673
sI69
g1213
sI169
(dp1321
g568
g579
sg570
g571
(g573
S'\x00\x00\x00\x00\x008O@'
tRp1322
sg575
g571
(g573
S'\x1e\x85\xebQ\xb8\x97R@'
tRp1323
sg577
I9223372036854775807
sssI85
(dp1324
I88
(dp1325
g568
g579
sg570
g571
(g573
S'\x00\x00\x00\x00\x008/@'
tRp1326
sg575
g571
(g573
S'G\xe1z\x14\xee\xc5Q@'
tRp1327
sg577
I9223372036854775807
ssI379
(dp1328
g568
g579
sg570
g571
(g573
S'\x00\x00\x00\x00\x008/@'
tRp1329
sg575
g571
(g573
S'G\xe1z\x14\xee\xc5Q@'
tRp1330
sg577
I9223372036854775807
ssI340
(dp1331
g568
g579
sg570
g571
(g573
S'\x00\x00\x00\x00\x008/@'
tRp1332
sg575
g571
(g573
S'G\xe1z\x14\xee\xc5Q@'
tRp1333
sg577
I9223372036854775807
ssI79
g1286
ssI86
(dp1334
I83
g1314
sI342
(dp1335
g568
g579
sg570
g571
(g573
S'\x00\x00\x00\x00\x008/@'
tRp1336
sg575
g571
(g573
S'G\xe1z\x14\xee\xc5Q@'
tRp1337
sg577
I9223372036854775807
ssI383
(dp1338
g568
g579
sg570
g571
(g573
S'\x00\x00\x00\x00\x008/@'
tRp1339
sg575
g571
(g573
S'G\xe1z\x14\xee\xc5Q@'
tRp1340
sg577
I9223372036854775807
sssI87
(dp1341
I13
g707
sI70
g1220
sI111
(dp1342
g568
g569
sg570
g571
(g573
S'\x00\x00\x00\x00\x008_@'
tRp1343
sg575
g571
(g573
S'43333\x1fl@'
tRp1344
sg577
I9223372036854775807
sssI88
(dp1345
I384
(dp1346
g568
g593
sg570
g571
(g573
S'\x00\x00\x00\x00\x008/@'
tRp1347
sg575
g571
(g573
S'\xc2\xf5(\\\xef\x80`@'
tRp1348
sg577
I9223372036854775807
ssI85
g1325
sI343
(dp1349
g568
g593
sg570
g571
(g573
S'\x00\x00\x00\x00\x008/@'
tRp1350
sg575
g571
(g573
S'\xc2\xf5(\\\xef\x80`@'
tRp1351
sg577
I9223372036854775807
sssI89
(dp1352
I160
(dp1353
g568
g579
sg570
g571
(g573
S'\x00\x00\x00\x00\x008?@'
tRp1354
sg575
g571
(g573
S'\x90\xc2\xf5(\xdc\x0bR@'
tRp1355
sg577
I9223372036854775807
ssI123
(dp1356
g568
g579
sg570
g571
(g573
S'\x00\x00\x00\x00\x008?@'
tRp1357
sg575
g571
(g573
S'\x90\xc2\xf5(\xdc\x0bR@'
tRp1358
sg577
I9223372036854775807
ssI51
g1054
ssI90
(dp1359
I16
g737
sI98
(dp1360
g568
g569
sg570
g571
(g573
S'\x00\x00\x00\x00\x008O@'
tRp1361
sg575
g571
(g573
S'\x99\x99\x99\x99\x99\x8fj@'
tRp1362
sg577
I9223372036854775807
ssI75
g1252
ssI91
(dp1363
I176
(dp1364
g568
g579
sg570
g571
(g573
S'\x00\x00\x00\x00\x008O@'
tRp1365
sg575
g571
(g573
S'\x1e\x85\xebQ\xb8\x97R@'
tRp1366
sg577
I9223372036854775807
ssI82
g1307
sI52
g1061
ssI92
(dp1367
I179
(dp1368
g568
g593
sg570
g571
(g573
S'\x00\x00\x00\x00\x008O@'
tRp1369
sg575
g571
(g573
S'\n\xd7\xa3p\xbdCa@'
tRp1370
sg577
I9223372036854775807
ssI102
(dp1371
g568
g593
sg570
g571
(g573
S'\x00\x00\x00\x00\x008O@'
tRp1372
sg575
g571
(g573
S'\n\xd7\xa3p\xbdCa@'
tRp1373
sg577
I9223372036854775807
ssI110
(dp1374
g568
g593
sg570
g571
(g573
S'\x00\x00\x00\x00\x008_@'
tRp1375
sg575
g571
(g573
S'\x15\xaeG\xe1zGb@'
tRp1376
sg577
I9223372036854775807
sssI93
(dp1377
I96
(dp1378
g568
g579
sg570
g571
(g573
S'\x00\x00\x00\x00\x008O@'
tRp1379
sg575
g571
(g573
S'\x1e\x85\xebQ\xb8\x97R@'
tRp1380
sg577
I9223372036854775807
ssI19
g764
sI77
g1266
sI517
(dp1381
g568
g579
sg570
g571
(g573
S'\x00\x00\x00\x00\x008O@'
tRp1382
sg575
g571
(g573
S'\x1e\x85\xebQ\xb8\x97R@'
tRp1383
sg577
I9223372036854775807
sssI94
(dp1384
I80
g1290
sI184
(dp1385
g568
g579
sg570
g571
(g573
S'\x00\x00\x00\x00\x008O@'
tRp1386
sg575
g571
(g573
S'\x1e\x85\xebQ\xb8\x97R@'
tRp1387
sg577
I9223372036854775807
ssI106
(dp1388
g568
g579
sg570
g571
(g573
S'\x00\x00\x00\x00\x008O@'
tRp1389
sg575
g571
(g573
S'\x1e\x85\xebQ\xb8\x97R@'
tRp1390
sg577
I9223372036854775807
sssI95
(dp1391
I140
(dp1392
g568
g593
sg570
g571
(g573
S'\x00\x00\x00\x00\x008?@'
tRp1393
sg575
g571
(g573
S'\x85\xebQ\xb8\xde\xc1`@'
tRp1394
sg577
I9223372036854775807
ssI101
(dp1395
g568
g579
sg570
g571
(g573
S'\x00\x00\x00\x00\x008?@'
tRp1396
sg575
g571
(g573
S'\x90\xc2\xf5(\xdc\x0bR@'
tRp1397
sg577
I9223372036854775807
ssI23
g801
ssI96
(dp1398
I200
(dp1399
g568
g579
sg570
g571
(g573
S'\x00\x00\x00\x00\x008O@'
tRp1400
sg575
g571
(g573
S'\x1e\x85\xebQ\xb8\x97R@'
tRp1401
sg577
I9223372036854775807
ssI280
(dp1402
g568
g579
sg570
g571
(g573
S'\x00\x00\x00\x00\x008O@'
tRp1403
sg575
g571
(g573
S'\x1e\x85\xebQ\xb8\x97R@'
tRp1404
sg577
I9223372036854775807
ssI162
(dp1405
g568
g579
sg570
g571
(g573
S'\x00\x00\x00\x00\x008O@'
tRp1406
sg575
g571
(g573
S'\x1e\x85\xebQ\xb8\x97R@'
tRp1407
sg577
I9223372036854775807
ssI93
g1378
ssI97
(dp1408
I112
(dp1409
g568
g579
sg570
g571
(g573
S'\x00\x00\x00\x00\x008/@'
tRp1410
sg575
g571
(g573
S'G\xe1z\x14\xee\xc5Q@'
tRp1411
sg577
I9223372036854775807
ssI538
(dp1412
g568
g593
sg570
g571
(g573
S'\x00\x00\x00\x00\x008/@'
tRp1413
sg575
g571
(g573
S'\xc2\xf5(\\\xef\x80`@'
tRp1414
sg577
I9223372036854775807
ssI495
(dp1415
g568
g593
sg570
g571
(g573
S'\x00\x00\x00\x00\x008/@'
tRp1416
sg575
g571
(g573
S'\xc2\xf5(\\\xef\x80`@'
tRp1417
sg577
I9223372036854775807
sssI98
(dp1418
I90
g1360
sI27
g838
sI114
(dp1419
g568
g569
sg570
g571
(g573
S'\x00\x00\x00\x00\x008O@'
tRp1420
sg575
g571
(g573
S'\x99\x99\x99\x99\x99\x8fj@'
tRp1421
sg577
I9223372036854775807
sssI99
(dp1422
I409
(dp1423
g568
g569
sg570
g571
(g573
S'\x00\x00\x00\x00\x008/@'
tRp1424
sg575
g571
(g573
S'ffff\xe6ci@'
tRp1425
sg577
I9223372036854775807
ssI103
(dp1426
g568
g593
sg570
g571
(g573
S'\x00\x00\x00\x00\x008/@'
tRp1427
sg575
g571
(g573
S'\xc2\xf5(\\\xef\x80`@'
tRp1428
sg577
I9223372036854775807
sssI100
(dp1429
I360
(dp1430
g568
g593
sg570
g571
(g573
S'\x00\x00\x00\x00\x008O@'
tRp1431
sg575
g571
(g573
S'\n\xd7\xa3p\xbdCa@'
tRp1432
sg577
I9223372036854775807
ssI441
(dp1433
g568
g579
sg570
g571
(g573
S'\x00\x00\x00\x00\x008O@'
tRp1434
sg575
g571
(g573
S'\x1e\x85\xebQ\xb8\x97R@'
tRp1435
sg577
I9223372036854775807
ssI332
(dp1436
g568
g593
sg570
g571
(g573
S'\x00\x00\x00\x00\x008O@'
tRp1437
sg575
g571
(g573
S'\n\xd7\xa3p\xbdCa@'
tRp1438
sg577
I9223372036854775807
sssI101
(dp1439
I484
(dp1440
g568
g579
sg570
g571
(g573
S'\x00\x00\x00\x00\x008?@'
tRp1441
sg575
g571
(g573
S'\x90\xc2\xf5(\xdc\x0bR@'
tRp1442
sg577
I9223372036854775807
ssI109
(dp1443
g568
g579
sg570
g571
(g573
S'\x00\x00\x00\x00\x008?@'
tRp1444
sg575
g571
(g573
S'\x90\xc2\xf5(\xdc\x0bR@'
tRp1445
sg577
I9223372036854775807
ssI95
g1395
ssI102
(dp1446
I199
(dp1447
g568
g579
sg570
g571
(g573
S'\x00\x00\x00\x00\x008O@'
tRp1448
sg575
g571
(g573
S'\x1e\x85\xebQ\xb8\x97R@'
tRp1449
sg577
I9223372036854775807
ssI92
g1371
sI119
(dp1450
g568
g593
sg570
g571
(g573
S'\x00\x00\x00\x00\x008O@'
tRp1451
sg575
g571
(g573
S'\n\xd7\xa3p\xbdCa@'
tRp1452
sg577
I9223372036854775807
sssI103
(dp1453
I107
(dp1454
g568
g593
sg570
g571
(g573
S'\x00\x00\x00\x00\x008/@'
tRp1455
sg575
g571
(g573
S'\xc2\xf5(\\\xef\x80`@'
tRp1456
sg577
I9223372036854775807
ssI353
(dp1457
g568
g579
sg570
g571
(g573
S'\x00\x00\x00\x00\x008/@'
tRp1458
sg575
g571
(g573
S'G\xe1z\x14\xee\xc5Q@'
tRp1459
sg577
I9223372036854775807
ssI99
g1426
ssI104
(dp1460
I363
(dp1461
g568
g579
sg570
g571
(g573
S'\x00\x00\x00\x00\x008/@'
tRp1462
sg575
g571
(g573
S'G\xe1z\x14\xee\xc5Q@'
tRp1463
sg577
I9223372036854775807
ssI108
(dp1464
g568
g579
sg570
g571
(g573
S'\x00\x00\x00\x00\x008/@'
tRp1465
sg575
g571
(g573
S'G\xe1z\x14\xee\xc5Q@'
tRp1466
sg577
I9223372036854775807
ssI189
(dp1467
g568
g579
sg570
g571
(g573
S'\x00\x00\x00\x00\x008/@'
tRp1468
sg575
g571
(g573
S'G\xe1z\x14\xee\xc5Q@'
tRp1469
sg577
I9223372036854775807
ssI413
(dp1470
g568
g579
sg570
g571
(g573
S'\x00\x00\x00\x00\x008/@'
tRp1471
sg575
g571
(g573
S'G\xe1z\x14\xee\xc5Q@'
tRp1472
sg577
I9223372036854775807
sssI105
(dp1473
I297
(dp1474
g568
g579
sg570
g571
(g573
S'\x00\x00\x00\x00\x008\x1f@'
tRp1475
sg575
g571
(g573
S'\xa4p=\n\xf7\xa2Q@'
tRp1476
sg577
I9223372036854775807
ssI290
(dp1477
g568
g579
sg570
g571
(g573
S'\x00\x00\x00\x00\x008\x1f@'
tRp1478
sg575
g571
(g573
S'\xa4p=\n\xf7\xa2Q@'
tRp1479
sg577
I9223372036854775807
ssI445
(dp1480
g568
g579
sg570
g571
(g573
S'\x00\x00\x00\x00\x008\x1f@'
tRp1481
sg575
g571
(g573
S'\xa4p=\n\xf7\xa2Q@'
tRp1482
sg577
I9223372036854775807
ssI134
(dp1483
g568
g579
sg570
g571
(g573
S'\x00\x00\x00\x00\x008\x1f@'
tRp1484
sg575
g571
(g573
S'\xa4p=\n\xf7\xa2Q@'
tRp1485
sg577
I9223372036854775807
sssI106
(dp1486
I32
g888
sI121
(dp1487
g568
g579
sg570
g571
(g573
S'\x00\x00\x00\x00\x008O@'
tRp1488
sg575
g571
(g573
S'\x1e\x85\xebQ\xb8\x97R@'
tRp1489
sg577
I9223372036854775807
ssI204
(dp1490
g568
g593
sg570
g571
(g573
S'\x00\x00\x00\x00\x008O@'
tRp1491
sg575
g571
(g573
S'\n\xd7\xa3p\xbdCa@'
tRp1492
sg577
I9223372036854775807
ssI94
g1388
ssI107
(dp1493
I115
(dp1494
g568
g593
sg570
g571
(g573
S'\x00\x00\x00\x00\x008?@'
tRp1495
sg575
g571
(g573
S'\x85\xebQ\xb8\xde\xc1`@'
tRp1496
sg577
I9223372036854775807
ssI415
(dp1497
g568
g579
sg570
g571
(g573
S'\x00\x00\x00\x00\x008/@'
tRp1498
sg575
g571
(g573
S'G\xe1z\x14\xee\xc5Q@'
tRp1499
sg577
I9223372036854775807
ssI103
g1454
ssI108
(dp1500
I104
g1464
sI416
(dp1501
g568
g579
sg570
g571
(g573
S'\x00\x00\x00\x00\x008/@'
tRp1502
sg575
g571
(g573
S'G\xe1z\x14\xee\xc5Q@'
tRp1503
sg577
I9223372036854775807
ssI367
(dp1504
g568
g579
sg570
g571
(g573
S'\x00\x00\x00\x00\x008/@'
tRp1505
sg575
g571
(g573
S'G\xe1z\x14\xee\xc5Q@'
tRp1506
sg577
I9223372036854775807
sssI109
(dp1507
I73
g1241
sI118
(dp1508
g568
g579
sg570
g571
(g573
S'\x00\x00\x00\x00\x008?@'
tRp1509
sg575
g571
(g573
S'\x90\xc2\xf5(\xdc\x0bR@'
tRp1510
sg577
I9223372036854775807
ssI101
g1443
sI158
(dp1511
g568
g579
sg570
g571
(g573
S'\x00\x00\x00\x00\x008?@'
tRp1512
sg575
g571
(g573
S'\x90\xc2\xf5(\xdc\x0bR@'
tRp1513
sg577
I9223372036854775807
sssI110
(dp1514
I124
(dp1515
g568
g593
sg570
g571
(g573
S'\x00\x00\x00\x00\x008_@'
tRp1516
sg575
g571
(g573
S'\x15\xaeG\xe1zGb@'
tRp1517
sg577
I9223372036854775807
ssI322
(dp1518
g568
g579
sg570
g571
(g573
S'\x00\x00\x00\x00\x008_@'
tRp1519
sg575
g571
(g573
S'>\n\xd7\xa3p\xafS@'
tRp1520
sg577
I9223372036854775807
ssI92
g1374
ssI111
(dp1521
I369
(dp1522
g568
g593
sg570
g571
(g573
S'\x00\x00\x00\x00\x008O@'
tRp1523
sg575
g571
(g573
S'\n\xd7\xa3p\xbdCa@'
tRp1524
sg577
I9223372036854775807
ssI503
(dp1525
g568
g569
sg570
g571
(g573
S'\x00\x00\x00\x00\x008_@'
tRp1526
sg575
g571
(g573
S'43333\x1fl@'
tRp1527
sg577
I9223372036854775807
ssI215
(dp1528
g568
g593
sg570
g571
(g573
S'\x00\x00\x00\x00\x008O@'
tRp1529
sg575
g571
(g573
S'\n\xd7\xa3p\xbdCa@'
tRp1530
sg577
I9223372036854775807
ssI87
g1342
ssI112
(dp1531
I97
g1409
sI191
(dp1532
g568
g579
sg570
g571
(g573
S'\x00\x00\x00\x00\x008/@'
tRp1533
sg575
g571
(g573
S'G\xe1z\x14\xee\xc5Q@'
tRp1534
sg577
I9223372036854775807
ssI269
(dp1535
g568
g579
sg570
g571
(g573
S'\x00\x00\x00\x00\x008/@'
tRp1536
sg575
g571
(g573
S'G\xe1z\x14\xee\xc5Q@'
tRp1537
sg577
I9223372036854775807
ssI449
(dp1538
g568
g579
sg570
g571
(g573
S'\x00\x00\x00\x00\x008/@'
tRp1539
sg575
g571
(g573
S'G\xe1z\x14\xee\xc5Q@'
tRp1540
sg577
I9223372036854775807
sssI113
(dp1541
I372
(dp1542
g568
g579
sg570
g571
(g573
S'\x00\x00\x00\x00\x008/@'
tRp1543
sg575
g571
(g573
S'G\xe1z\x14\xee\xc5Q@'
tRp1544
sg577
I9223372036854775807
ssI275
(dp1545
g568
g579
sg570
g571
(g573
S'\x00\x00\x00\x00\x008\x1f@'
tRp1546
sg575
g571
(g573
S'\xa4p=\n\xf7\xa2Q@'
tRp1547
sg577
I9223372036854775807
ssI116
(dp1548
g568
g579
sg570
g571
(g573
S'\x00\x00\x00\x00\x008\x1f@'
tRp1549
sg575
g571
(g573
S'\xa4p=\n\xf7\xa2Q@'
tRp1550
sg577
I9223372036854775807
sssI114
(dp1551
I98
g1419
sI132
(dp1552
g568
g569
sg570
g571
(g573
S'\x00\x00\x00\x00\x008O@'
tRp1553
sg575
g571
(g573
S'\x99\x99\x99\x99\x99\x8fj@'
tRp1554
sg577
I9223372036854775807
ssI39
g955
ssI115
(dp1555
I24
g805
sI107
g1494
sI133
(dp1556
g568
g593
sg570
g571
(g573
S'\x00\x00\x00\x00\x008O@'
tRp1557
sg575
g571
(g573
S'\n\xd7\xa3p\xbdCa@'
tRp1558
sg577
I9223372036854775807
sssI116
(dp1559
I120
(dp1560
g568
g579
sg570
g571
(g573
S'\x00\x00\x00\x00\x008\x1f@'
tRp1561
sg575
g571
(g573
S'\xa4p=\n\xf7\xa2Q@'
tRp1562
sg577
I9223372036854775807
ssI113
g1548
sI278
(dp1563
g568
g579
sg570
g571
(g573
S'\x00\x00\x00\x00\x008\x1f@'
tRp1564
sg575
g571
(g573
S'\xa4p=\n\xf7\xa2Q@'
tRp1565
sg577
I9223372036854775807
sssI117
(dp1566
I80
g1293
sI167
(dp1567
g568
g579
sg570
g571
(g573
S'\x00\x00\x00\x00\x008?@'
tRp1568
sg575
g571
(g573
S'\x90\xc2\xf5(\xdc\x0bR@'
tRp1569
sg577
I9223372036854775807
ssI255
(dp1570
g568
g579
sg570
g571
(g573
S'\x00\x00\x00\x00\x008?@'
tRp1571
sg575
g571
(g573
S'\x90\xc2\xf5(\xdc\x0bR@'
tRp1572
sg577
I9223372036854775807
sssI118
(dp1573
I160
(dp1574
g568
g579
sg570
g571
(g573
S'\x00\x00\x00\x00\x008?@'
tRp1575
sg575
g571
(g573
S'\x90\xc2\xf5(\xdc\x0bR@'
tRp1576
sg577
I9223372036854775807
ssI123
(dp1577
g568
g579
sg570
g571
(g573
S'\x00\x00\x00\x00\x008?@'
tRp1578
sg575
g571
(g573
S'\x90\xc2\xf5(\xdc\x0bR@'
tRp1579
sg577
I9223372036854775807
ssI109
g1508
ssI119
(dp1580
I226
(dp1581
g568
g579
sg570
g571
(g573
S'\x00\x00\x00\x00\x008O@'
tRp1582
sg575
g571
(g573
S'\x1e\x85\xebQ\xb8\x97R@'
tRp1583
sg577
I9223372036854775807
ssI322
(dp1584
g568
g579
sg570
g571
(g573
S'\x00\x00\x00\x00\x008_@'
tRp1585
sg575
g571
(g573
S'>\n\xd7\xa3p\xafS@'
tRp1586
sg577
I9223372036854775807
ssI154
(dp1587
g568
g593
sg570
g571
(g573
S'\x00\x00\x00\x00\x008_@'
tRp1588
sg575
g571
(g573
S'\x15\xaeG\xe1zGb@'
tRp1589
sg577
I9223372036854775807
ssI102
g1450
ssI120
(dp1590
I377
(dp1591
g568
g579
sg570
g571
(g573
S'\x00\x00\x00\x00\x008/@'
tRp1592
sg575
g571
(g573
S'G\xe1z\x14\xee\xc5Q@'
tRp1593
sg577
I9223372036854775807
ssI122
(dp1594
g568
g579
sg570
g571
(g573
S'\x00\x00\x00\x00\x008/@'
tRp1595
sg575
g571
(g573
S'G\xe1z\x14\xee\xc5Q@'
tRp1596
sg577
I9223372036854775807
ssI116
g1560
sI282
(dp1597
g568
g579
sg570
g571
(g573
S'\x00\x00\x00\x00\x008\x1f@'
tRp1598
sg575
g571
(g573
S'\xa4p=\n\xf7\xa2Q@'
tRp1599
sg577
I9223372036854775807
sssI121
(dp1600
I48
g1039
sI129
(dp1601
g568
g579
sg570
g571
(g573
S'\x00\x00\x00\x00\x008?@'
tRp1602
sg575
g571
(g573
S'\x90\xc2\xf5(\xdc\x0bR@'
tRp1603
sg577
I9223372036854775807
ssI106
g1487
sI172
(dp1604
g568
g579
sg570
g571
(g573
S'\x00\x00\x00\x00\x008?@'
tRp1605
sg575
g571
(g573
S'\x90\xc2\xf5(\xdc\x0bR@'
tRp1606
sg577
I9223372036854775807
sssI122
(dp1607
I120
g1594
sI433
(dp1608
g568
g579
sg570
g571
(g573
S'\x00\x00\x00\x00\x008/@'
tRp1609
sg575
g571
(g573
S'G\xe1z\x14\xee\xc5Q@'
tRp1610
sg577
I9223372036854775807
ssI383
(dp1611
g568
g579
sg570
g571
(g573
S'\x00\x00\x00\x00\x008/@'
tRp1612
sg575
g571
(g573
S'G\xe1z\x14\xee\xc5Q@'
tRp1613
sg577
I9223372036854775807
sssI123
(dp1614
I89
g1356
sI347
(dp1615
g568
g579
sg570
g571
(g573
S'\x00\x00\x00\x00\x008O@'
tRp1616
sg575
g571
(g573
S'\x1e\x85\xebQ\xb8\x97R@'
tRp1617
sg577
I9223372036854775807
ssI118
g1577
sI145
(dp1618
g568
g579
sg570
g571
(g573
S'\x00\x00\x00\x00\x008O@'
tRp1619
sg575
g571
(g573
S'\x1e\x85\xebQ\xb8\x97R@'
tRp1620
sg577
I9223372036854775807
sssI124
(dp1621
I187
(dp1622
g568
g593
sg570
g571
(g573
S'\x00\x00\x00\x00\x008O@'
tRp1623
sg575
g571
(g573
S'\n\xd7\xa3p\xbdCa@'
tRp1624
sg577
I9223372036854775807
ssI301
(dp1625
g568
g593
sg570
g571
(g573
S'\x00\x00\x00\x00\x008O@'
tRp1626
sg575
g571
(g573
S'\n\xd7\xa3p\xbdCa@'
tRp1627
sg577
I9223372036854775807
ssI110
g1515
ssI125
(dp1628
I436
(dp1629
g568
g579
sg570
g571
(g573
S'\x00\x00\x00\x00\x008/@'
tRp1630
sg575
g571
(g573
S'G\xe1z\x14\xee\xc5Q@'
tRp1631
sg577
I9223372036854775807
ssI130
(dp1632
g568
g579
sg570
g571
(g573
S'\x00\x00\x00\x00\x008/@'
tRp1633
sg575
g571
(g573
S'G\xe1z\x14\xee\xc5Q@'
tRp1634
sg577
I9223372036854775807
ssI228
(dp1635
g568
g579
sg570
g571
(g573
S'\x00\x00\x00\x00\x008/@'
tRp1636
sg575
g571
(g573
S'G\xe1z\x14\xee\xc5Q@'
tRp1637
sg577
I9223372036854775807
sssI126
(dp1638
I127
(dp1639
g568
g579
sg570
g571
(g573
S'\x00\x00\x00\x00\x008\x0f@'
tRp1640
sg575
g571
(g573
S'R\xb8\x1e\x85{\x91Q@'
tRp1641
sg577
I9223372036854775807
ssI213
(dp1642
g568
g579
sg570
g571
(g573
S'\x00\x00\x00\x00\x008\x0f@'
tRp1643
sg575
g571
(g573
S'R\xb8\x1e\x85{\x91Q@'
tRp1644
sg577
I9223372036854775807
ssI63
g1159
ssI127
(dp1645
I64
g1169
sI214
(dp1646
g568
g569
sg570
g571
(g573
S'\x00\x00\x00\x00\x008\x0f@'
tRp1647
sg575
g571
(g573
S'\x9a\x99\x99\x99\xf9\x18i@'
tRp1648
sg577
I9223372036854775807
ssI150
(dp1649
g568
g579
sg570
g571
(g573
S'\x00\x00\x00\x00\x008\x0f@'
tRp1650
sg575
g571
(g573
S'R\xb8\x1e\x85{\x91Q@'
tRp1651
sg577
I9223372036854775807
ssI126
g1639
ssI128
(dp1652
I147
(dp1653
g568
g569
sg570
g571
(g573
S'\x00\x00\x00\x00\x008O@'
tRp1654
sg575
g571
(g573
S'\x99\x99\x99\x99\x99\x8fj@'
tRp1655
sg577
I9223372036854775807
ssI53
g1065
sI238
(dp1656
g568
g593
sg570
g571
(g573
S'\x00\x00\x00\x00\x008O@'
tRp1657
sg575
g571
(g573
S'\n\xd7\xa3p\xbdCa@'
tRp1658
sg577
I9223372036854775807
sssI129
(dp1659
I121
g1601
sI180
(dp1660
g568
g579
sg570
g571
(g573
S'\x00\x00\x00\x00\x008?@'
tRp1661
sg575
g571
(g573
S'\x90\xc2\xf5(\xdc\x0bR@'
tRp1662
sg577
I9223372036854775807
ssI142
(dp1663
g568
g579
sg570
g571
(g573
S'\x00\x00\x00\x00\x008?@'
tRp1664
sg575
g571
(g573
S'\x90\xc2\xf5(\xdc\x0bR@'
tRp1665
sg577
I9223372036854775807
sssI130
(dp1666
I137
(dp1667
g568
g579
sg570
g571
(g573
S'\x00\x00\x00\x00\x008/@'
tRp1668
sg575
g571
(g573
S'G\xe1z\x14\xee\xc5Q@'
tRp1669
sg577
I9223372036854775807
ssI443
(dp1670
g568
g579
sg570
g571
(g573
S'\x00\x00\x00\x00\x008/@'
tRp1671
sg575
g571
(g573
S'G\xe1z\x14\xee\xc5Q@'
tRp1672
sg577
I9223372036854775807
ssI125
g1632
sI390
(dp1673
g568
g579
sg570
g571
(g573
S'\x00\x00\x00\x00\x008/@'
tRp1674
sg575
g571
(g573
S'G\xe1z\x14\xee\xc5Q@'
tRp1675
sg577
I9223372036854775807
sssI131
(dp1676
I538
(dp1677
g568
g593
sg570
g571
(g573
S'\x00\x00\x00\x00\x008/@'
tRp1678
sg575
g571
(g573
S'\xc2\xf5(\\\xef\x80`@'
tRp1679
sg577
I9223372036854775807
ssI138
(dp1680
g568
g579
sg570
g571
(g573
S'\x00\x00\x00\x00\x008/@'
tRp1681
sg575
g571
(g573
S'G\xe1z\x14\xee\xc5Q@'
tRp1682
sg577
I9223372036854775807
ssI391
(dp1683
g568
g593
sg570
g571
(g573
S'\x00\x00\x00\x00\x008/@'
tRp1684
sg575
g571
(g573
S'\xc2\xf5(\\\xef\x80`@'
tRp1685
sg577
I9223372036854775807
sssI132
(dp1686
I152
(dp1687
g568
g569
sg570
g571
(g573
S'\x00\x00\x00\x00\x008O@'
tRp1688
sg575
g571
(g573
S'\x99\x99\x99\x99\x99\x8fj@'
tRp1689
sg577
I9223372036854775807
ssI114
g1552
sI55
g1085
ssI133
(dp1690
I144
(dp1691
g568
g593
sg570
g571
(g573
S'\x00\x00\x00\x00\x008?@'
tRp1692
sg575
g571
(g573
S'\x85\xebQ\xb8\xde\xc1`@'
tRp1693
sg577
I9223372036854775807
ssI115
g1556
sI183
(dp1694
g568
g579
sg570
g571
(g573
S'\x00\x00\x00\x00\x008?@'
tRp1695
sg575
g571
(g573
S'\x90\xc2\xf5(\xdc\x0bR@'
tRp1696
sg577
I9223372036854775807
sssI134
(dp1697
I8
g666
sI105
g1483
sI136
(dp1698
g568
g579
sg570
g571
(g573
S'\x00\x00\x00\x00\x008\x1f@'
tRp1699
sg575
g571
(g573
S'\xa4p=\n\xf7\xa2Q@'
tRp1700
sg577
I9223372036854775807
sssI135
(dp1701
I178
(dp1702
g568
g579
sg570
g571
(g573
S'\x00\x00\x00\x00\x008?@'
tRp1703
sg575
g571
(g573
S'\x90\xc2\xf5(\xdc\x0bR@'
tRp1704
sg577
I9223372036854775807
ssI197
(dp1705
g568
g579
sg570
g571
(g573
S'\x00\x00\x00\x00\x008?@'
tRp1706
sg575
g571
(g573
S'\x90\xc2\xf5(\xdc\x0bR@'
tRp1707
sg577
I9223372036854775807
ssI246
(dp1708
g568
g579
sg570
g571
(g573
S'\x00\x00\x00\x00\x008?@'
tRp1709
sg575
g571
(g573
S'\x90\xc2\xf5(\xdc\x0bR@'
tRp1710
sg577
I9223372036854775807
ssI141
(dp1711
g568
g579
sg570
g571
(g573
S'\x00\x00\x00\x00\x008?@'
tRp1712
sg575
g571
(g573
S'\x90\xc2\xf5(\xdc\x0bR@'
tRp1713
sg577
I9223372036854775807
sssI136
(dp1714
I297
(dp1715
g568
g569
sg570
g571
(g573
S'\x00\x00\x00\x00\x008\x1f@'
tRp1716
sg575
g571
(g573
S'3333\xf31i@'
tRp1717
sg577
I9223372036854775807
ssI11
g687
sI139
(dp1718
g568
g579
sg570
g571
(g573
S'\x00\x00\x00\x00\x008\x1f@'
tRp1719
sg575
g571
(g573
S'\xa4p=\n\xf7\xa2Q@'
tRp1720
sg577
I9223372036854775807
ssI134
g1698
ssI137
(dp1721
I448
(dp1722
g568
g579
sg570
g571
(g573
S'\x00\x00\x00\x00\x008/@'
tRp1723
sg575
g571
(g573
S'G\xe1z\x14\xee\xc5Q@'
tRp1724
sg577
I9223372036854775807
ssI130
g1667
sI396
(dp1725
g568
g579
sg570
g571
(g573
S'\x00\x00\x00\x00\x008/@'
tRp1726
sg575
g571
(g573
S'G\xe1z\x14\xee\xc5Q@'
tRp1727
sg577
I9223372036854775807
sssI138
(dp1728
I449
(dp1729
g568
g579
sg570
g571
(g573
S'\x00\x00\x00\x00\x008/@'
tRp1730
sg575
g571
(g573
S'G\xe1z\x14\xee\xc5Q@'
tRp1731
sg577
I9223372036854775807
ssI131
g1680
sI397
(dp1732
g568
g579
sg570
g571
(g573
S'\x00\x00\x00\x00\x008/@'
tRp1733
sg575
g571
(g573
S'G\xe1z\x14\xee\xc5Q@'
tRp1734
sg577
I9223372036854775807
ssI143
(dp1735
g568
g579
sg570
g571
(g573
S'\x00\x00\x00\x00\x008/@'
tRp1736
sg575
g571
(g573
S'G\xe1z\x14\xee\xc5Q@'
tRp1737
sg577
I9223372036854775807
sssI139
(dp1738
I136
g1718
sI74
g1245
sI212
(dp1739
g568
g579
sg570
g571
(g573
S'\x00\x00\x00\x00\x008\x1f@'
tRp1740
sg575
g571
(g573
S'\xa4p=\n\xf7\xa2Q@'
tRp1741
sg577
I9223372036854775807
sssI140
(dp1742
I187
(dp1743
g568
g593
sg570
g571
(g573
S'\x00\x00\x00\x00\x008?@'
tRp1744
sg575
g571
(g573
S'\x85\xebQ\xb8\xde\xc1`@'
tRp1745
sg577
I9223372036854775807
ssI484
(dp1746
g568
g579
sg570
g571
(g573
S'\x00\x00\x00\x00\x008?@'
tRp1747
sg575
g571
(g573
S'\x90\xc2\xf5(\xdc\x0bR@'
tRp1748
sg577
I9223372036854775807
ssI95
g1392
ssI141
(dp1749
I369
(dp1750
g568
g593
sg570
g571
(g573
S'\x00\x00\x00\x00\x008?@'
tRp1751
sg575
g571
(g573
S'\x85\xebQ\xb8\xde\xc1`@'
tRp1752
sg577
I9223372036854775807
ssI148
(dp1753
g568
g593
sg570
g571
(g573
S'\x00\x00\x00\x00\x008?@'
tRp1754
sg575
g571
(g573
S'\x85\xebQ\xb8\xde\xc1`@'
tRp1755
sg577
I9223372036854775807
ssI135
g1711
ssI142
(dp1756
I129
g1663
sI61
g1145
sI190
(dp1757
g568
g579
sg570
g571
(g573
S'\x00\x00\x00\x00\x008?@'
tRp1758
sg575
g571
(g573
S'\x90\xc2\xf5(\xdc\x0bR@'
tRp1759
sg577
I9223372036854775807
ssI159
(dp1760
g568
g579
sg570
g571
(g573
S'\x00\x00\x00\x00\x008O@'
tRp1761
sg575
g571
(g573
S'\x1e\x85\xebQ\xb8\x97R@'
tRp1762
sg577
I9223372036854775807
sssI143
(dp1763
I138
g1735
sI404
(dp1764
g568
g579
sg570
g571
(g573
S'\x00\x00\x00\x00\x008/@'
tRp1765
sg575
g571
(g573
S'G\xe1z\x14\xee\xc5Q@'
tRp1766
sg577
I9223372036854775807
ssI30
g874
ssI144
(dp1767
I193
(dp1768
g568
g579
sg570
g571
(g573
S'\x00\x00\x00\x00\x008?@'
tRp1769
sg575
g571
(g573
S'\x90\xc2\xf5(\xdc\x0bR@'
tRp1770
sg577
I9223372036854775807
ssI133
g1691
sI153
(dp1771
g568
g593
sg570
g571
(g573
S'\x00\x00\x00\x00\x008?@'
tRp1772
sg575
g571
(g573
S'\x85\xebQ\xb8\xde\xc1`@'
tRp1773
sg577
I9223372036854775807
sssI145
(dp1774
I249
(dp1775
g568
g579
sg570
g571
(g573
S'\x00\x00\x00\x00\x008O@'
tRp1776
sg575
g571
(g573
S'\x1e\x85\xebQ\xb8\x97R@'
tRp1777
sg577
I9223372036854775807
ssI162
(dp1778
g568
g579
sg570
g571
(g573
S'\x00\x00\x00\x00\x008O@'
tRp1779
sg575
g571
(g573
S'\x1e\x85\xebQ\xb8\x97R@'
tRp1780
sg577
I9223372036854775807
ssI123
g1618
ssI146
(dp1781
I409
(dp1782
g568
g569
sg570
g571
(g573
S'\x00\x00\x00\x00\x008/@'
tRp1783
sg575
g571
(g573
S'ffff\xe6ci@'
tRp1784
sg577
I9223372036854775807
ssI195
(dp1785
g568
g569
sg570
g571
(g573
S'\x00\x00\x00\x00\x008?@'
tRp1786
sg575
g571
(g573
S'\xcd\xcc\xcc\xcc\xcc\xc7i@'
tRp1787
sg577
I9223372036854775807
ssI151
(dp1788
g568
g579
sg570
g571
(g573
S'\x00\x00\x00\x00\x008/@'
tRp1789
sg575
g571
(g573
S'G\xe1z\x14\xee\xc5Q@'
tRp1790
sg577
I9223372036854775807
sssI147
(dp1791
I128
g1653
sI536
(dp1792
g568
g579
sg570
g571
(g573
S'\x00\x00\x00\x00\x008?@'
tRp1793
sg575
g571
(g573
S'\x90\xc2\xf5(\xdc\x0bR@'
tRp1794
sg577
I9223372036854775807
ssI251
(dp1795
g568
g569
sg570
g571
(g573
S'\x00\x00\x00\x00\x008O@'
tRp1796
sg575
g571
(g573
S'\x99\x99\x99\x99\x99\x8fj@'
tRp1797
sg577
I9223372036854775807
ssI196
(dp1798
g568
g579
sg570
g571
(g573
S'\x00\x00\x00\x00\x008?@'
tRp1799
sg575
g571
(g573
S'\x90\xc2\xf5(\xdc\x0bR@'
tRp1800
sg577
I9223372036854775807
sssI148
(dp1801
I81
g1297
sI141
g1753
sI542
(dp1802
g568
g579
sg570
g571
(g573
S'\x00\x00\x00\x00\x008_@'
tRp1803
sg575
g571
(g573
S'>\n\xd7\xa3p\xafS@'
tRp1804
sg577
I9223372036854775807
ssI197
(dp1805
g568
g579
sg570
g571
(g573
S'\x00\x00\x00\x00\x008?@'
tRp1806
sg575
g571
(g573
S'\x90\xc2\xf5(\xdc\x0bR@'
tRp1807
sg577
I9223372036854775807
sssI149
(dp1808
I331
(dp1809
g568
g579
sg570
g571
(g573
S'\x00\x00\x00\x00\x008?@'
tRp1810
sg575
g571
(g573
S'\x90\xc2\xf5(\xdc\x0bR@'
tRp1811
sg577
I9223372036854775807
ssI277
(dp1812
g568
g579
sg570
g571
(g573
S'\x00\x00\x00\x00\x008?@'
tRp1813
sg575
g571
(g573
S'\x90\xc2\xf5(\xdc\x0bR@'
tRp1814
sg577
I9223372036854775807
ssI246
(dp1815
g568
g579
sg570
g571
(g573
S'\x00\x00\x00\x00\x008?@'
tRp1816
sg575
g571
(g573
S'\x90\xc2\xf5(\xdc\x0bR@'
tRp1817
sg577
I9223372036854775807
ssI293
(dp1818
g568
g579
sg570
g571
(g573
S'\x00\x00\x00\x00\x008?@'
tRp1819
sg575
g571
(g573
S'\x90\xc2\xf5(\xdc\x0bR@'
tRp1820
sg577
I9223372036854775807
sssI150
(dp1821
I217
(dp1822
g568
g579
sg570
g571
(g573
S'\x00\x00\x00\x00\x008\x0f@'
tRp1823
sg575
g571
(g573
S'R\xb8\x1e\x85{\x91Q@'
tRp1824
sg577
I9223372036854775807
ssI66
g1186
sI127
g1649
ssI151
(dp1825
I353
(dp1826
g568
g579
sg570
g571
(g573
S'\x00\x00\x00\x00\x008/@'
tRp1827
sg575
g571
(g573
S'G\xe1z\x14\xee\xc5Q@'
tRp1828
sg577
I9223372036854775807
ssI146
g1788
sI155
(dp1829
g568
g579
sg570
g571
(g573
S'\x00\x00\x00\x00\x008/@'
tRp1830
sg575
g571
(g573
S'G\xe1z\x14\xee\xc5Q@'
tRp1831
sg577
I9223372036854775807
sssI152
(dp1832
I169
(dp1833
g568
g569
sg570
g571
(g573
S'\x00\x00\x00\x00\x008O@'
tRp1834
sg575
g571
(g573
S'\x99\x99\x99\x99\x99\x8fj@'
tRp1835
sg577
I9223372036854775807
ssI132
g1687
sI69
g1207
ssI153
(dp1836
I144
g1771
sI156
(dp1837
g568
g593
sg570
g571
(g573
S'\x00\x00\x00\x00\x008/@'
tRp1838
sg575
g571
(g573
S'\xc2\xf5(\\\xef\x80`@'
tRp1839
sg577
I9223372036854775807
ssI461
(dp1840
g568
g579
sg570
g571
(g573
S'\x00\x00\x00\x00\x008/@'
tRp1841
sg575
g571
(g573
S'G\xe1z\x14\xee\xc5Q@'
tRp1842
sg577
I9223372036854775807
sssI154
(dp1843
I345
(dp1844
g568
g593
sg570
g571
(g573
S'\x00\x00\x00\x00\x008_@'
tRp1845
sg575
g571
(g573
S'\x15\xaeG\xe1zGb@'
tRp1846
sg577
I9223372036854775807
ssI547
(dp1847
g568
g593
sg570
g571
(g573
S'\x00\x00\x00\x00\x008_@'
tRp1848
sg575
g571
(g573
S'\x15\xaeG\xe1zGb@'
tRp1849
sg577
I9223372036854775807
ssI238
(dp1850
g568
g593
sg570
g571
(g573
S'\x00\x00\x00\x00\x008o@'
tRp1851
sg575
g571
(g573
S')\\\x8f\xc2\xf5Nd@'
tRp1852
sg577
I9223372036854775807
ssI119
g1587
ssI155
(dp1853
I24
g811
sI415
(dp1854
g568
g579
sg570
g571
(g573
S'\x00\x00\x00\x00\x008/@'
tRp1855
sg575
g571
(g573
S'G\xe1z\x14\xee\xc5Q@'
tRp1856
sg577
I9223372036854775807
ssI207
(dp1857
g568
g579
sg570
g571
(g573
S'\x00\x00\x00\x00\x008?@'
tRp1858
sg575
g571
(g573
S'\x90\xc2\xf5(\xdc\x0bR@'
tRp1859
sg577
I9223372036854775807
ssI151
g1829
ssI156
(dp1860
I153
g1837
sI468
(dp1861
g568
g579
sg570
g571
(g573
S'\x00\x00\x00\x00\x008/@'
tRp1862
sg575
g571
(g573
S'G\xe1z\x14\xee\xc5Q@'
tRp1863
sg577
I9223372036854775807
ssI161
(dp1864
g568
g593
sg570
g571
(g573
S'\x00\x00\x00\x00\x008/@'
tRp1865
sg575
g571
(g573
S'\xc2\xf5(\\\xef\x80`@'
tRp1866
sg577
I9223372036854775807
sssI157
(dp1867
I218
(dp1868
g568
g593
sg570
g571
(g573
S'\x00\x00\x00\x00\x008?@'
tRp1869
sg575
g571
(g573
S'\x85\xebQ\xb8\xde\xc1`@'
tRp1870
sg577
I9223372036854775807
ssI429
(dp1871
g568
g593
sg570
g571
(g573
S'\x00\x00\x00\x00\x008?@'
tRp1872
sg575
g571
(g573
S'\x85\xebQ\xb8\xde\xc1`@'
tRp1873
sg577
I9223372036854775807
ssI23
g798
ssI158
(dp1874
I210
(dp1875
g568
g579
sg570
g571
(g573
S'\x00\x00\x00\x00\x008?@'
tRp1876
sg575
g571
(g573
S'\x90\xc2\xf5(\xdc\x0bR@'
tRp1877
sg577
I9223372036854775807
ssI484
(dp1878
g568
g579
sg570
g571
(g573
S'\x00\x00\x00\x00\x008?@'
tRp1879
sg575
g571
(g573
S'\x90\xc2\xf5(\xdc\x0bR@'
tRp1880
sg577
I9223372036854775807
ssI109
g1511
ssI159
(dp1881
I176
(dp1882
g568
g579
sg570
g571
(g573
S'\x00\x00\x00\x00\x008O@'
tRp1883
sg575
g571
(g573
S'\x1e\x85\xebQ\xb8\x97R@'
tRp1884
sg577
I9223372036854775807
ssI76
g1259
sI142
g1760
ssI160
(dp1885
I73
g1238
sI42
g982
sI118
g1574
sI89
g1353
ssI161
(dp1886
I473
(dp1887
g568
g579
sg570
g571
(g573
S'\x00\x00\x00\x00\x008/@'
tRp1888
sg575
g571
(g573
S'G\xe1z\x14\xee\xc5Q@'
tRp1889
sg577
I9223372036854775807
ssI156
g1864
sI166
(dp1890
g568
g593
sg570
g571
(g573
S'\x00\x00\x00\x00\x008/@'
tRp1891
sg575
g571
(g573
S'\xc2\xf5(\\\xef\x80`@'
tRp1892
sg577
I9223372036854775807
sssI162
(dp1893
I96
g1405
sI145
g1778
sI77
g1263
sI264
(dp1894
g568
g593
sg570
g571
(g573
S'\x00\x00\x00\x00\x008O@'
tRp1895
sg575
g571
(g573
S'\n\xd7\xa3p\xbdCa@'
tRp1896
sg577
I9223372036854775807
sssI163
(dp1897
I168
(dp1898
g568
g579
sg570
g571
(g573
S'\x00\x00\x00\x00\x008/@'
tRp1899
sg575
g571
(g573
S'G\xe1z\x14\xee\xc5Q@'
tRp1900
sg577
I9223372036854775807
ssI475
(dp1901
g568
g579
sg570
g571
(g573
S'\x00\x00\x00\x00\x008/@'
tRp1902
sg575
g571
(g573
S'G\xe1z\x14\xee\xc5Q@'
tRp1903
sg577
I9223372036854775807
ssI423
(dp1904
g568
g579
sg570
g571
(g573
S'\x00\x00\x00\x00\x008/@'
tRp1905
sg575
g571
(g573
S'G\xe1z\x14\xee\xc5Q@'
tRp1906
sg577
I9223372036854775807
sssI164
(dp1907
I228
(dp1908
g568
g579
sg570
g571
(g573
S'\x00\x00\x00\x00\x008?@'
tRp1909
sg575
g571
(g573
S'\x90\xc2\xf5(\xdc\x0bR@'
tRp1910
sg577
I9223372036854775807
ssI292
(dp1911
g568
g593
sg570
g571
(g573
S'\x00\x00\x00\x00\x008O@'
tRp1912
sg575
g571
(g573
S'\n\xd7\xa3p\xbdCa@'
tRp1913
sg577
I9223372036854775807
ssI429
(dp1914
g568
g593
sg570
g571
(g573
S'\x00\x00\x00\x00\x008?@'
tRp1915
sg575
g571
(g573
S'\x85\xebQ\xb8\xde\xc1`@'
tRp1916
sg577
I9223372036854775807
sssI165
(dp1917
I298
(dp1918
g568
g579
sg570
g571
(g573
S'\x00\x00\x00\x00\x008?@'
tRp1919
sg575
g571
(g573
S'\x90\xc2\xf5(\xdc\x0bR@'
tRp1920
sg577
I9223372036854775807
ssI307
(dp1921
g568
g579
sg570
g571
(g573
S'\x00\x00\x00\x00\x008?@'
tRp1922
sg575
g571
(g573
S'\x90\xc2\xf5(\xdc\x0bR@'
tRp1923
sg577
I9223372036854775807
ssI262
(dp1924
g568
g579
sg570
g571
(g573
S'\x00\x00\x00\x00\x008?@'
tRp1925
sg575
g571
(g573
S'\x90\xc2\xf5(\xdc\x0bR@'
tRp1926
sg577
I9223372036854775807
ssI422
(dp1927
g568
g579
sg570
g571
(g573
S'\x00\x00\x00\x00\x008?@'
tRp1928
sg575
g571
(g573
S'\x90\xc2\xf5(\xdc\x0bR@'
tRp1929
sg577
I9223372036854775807
sssI166
(dp1930
I161
g1890
sI170
(dp1931
g568
g593
sg570
g571
(g573
S'\x00\x00\x00\x00\x008/@'
tRp1932
sg575
g571
(g573
S'\xc2\xf5(\\\xef\x80`@'
tRp1933
sg577
I9223372036854775807
ssI478
(dp1934
g568
g579
sg570
g571
(g573
S'\x00\x00\x00\x00\x008/@'
tRp1935
sg575
g571
(g573
S'G\xe1z\x14\xee\xc5Q@'
tRp1936
sg577
I9223372036854775807
sssI167
(dp1937
I184
(dp1938
g568
g579
sg570
g571
(g573
S'\x00\x00\x00\x00\x008O@'
tRp1939
sg575
g571
(g573
S'\x1e\x85\xebQ\xb8\x97R@'
tRp1940
sg577
I9223372036854775807
ssI536
(dp1941
g568
g579
sg570
g571
(g573
S'\x00\x00\x00\x00\x008?@'
tRp1942
sg575
g571
(g573
S'\x90\xc2\xf5(\xdc\x0bR@'
tRp1943
sg577
I9223372036854775807
ssI266
(dp1944
g568
g579
sg570
g571
(g573
S'\x00\x00\x00\x00\x008O@'
tRp1945
sg575
g571
(g573
S'\x1e\x85\xebQ\xb8\x97R@'
tRp1946
sg577
I9223372036854775807
ssI117
g1567
ssI168
(dp1947
I321
(dp1948
g568
g579
sg570
g571
(g573
S'\x00\x00\x00\x00\x008\x1f@'
tRp1949
sg575
g571
(g573
S'\xa4p=\n\xf7\xa2Q@'
tRp1950
sg577
I9223372036854775807
ssI163
g1898
sI171
(dp1951
g568
g579
sg570
g571
(g573
S'\x00\x00\x00\x00\x008\x1f@'
tRp1952
sg575
g571
(g573
S'\xa4p=\n\xf7\xa2Q@'
tRp1953
sg577
I9223372036854775807
ssI430
(dp1954
g568
g579
sg570
g571
(g573
S'\x00\x00\x00\x00\x008/@'
tRp1955
sg575
g571
(g573
S'G\xe1z\x14\xee\xc5Q@'
tRp1956
sg577
I9223372036854775807
sssI169
(dp1957
I152
g1833
sI84
g1321
ssI170
(dp1958
I211
(dp1959
g568
g593
sg570
g571
(g573
S'\x00\x00\x00\x00\x008_@'
tRp1960
sg575
g571
(g573
S'\x15\xaeG\xe1zGb@'
tRp1961
sg577
I9223372036854775807
ssI486
(dp1962
g568
g593
sg570
g571
(g573
S'\x00\x00\x00\x00\x008/@'
tRp1963
sg575
g571
(g573
S'\xc2\xf5(\\\xef\x80`@'
tRp1964
sg577
I9223372036854775807
ssI166
g1931
ssI171
(dp1965
I168
g1951
sI173
(dp1966
g568
g579
sg570
g571
(g573
S'\x00\x00\x00\x00\x008\x1f@'
tRp1967
sg575
g571
(g573
S'\xa4p=\n\xf7\xa2Q@'
tRp1968
sg577
I9223372036854775807
ssI326
(dp1969
g568
g579
sg570
g571
(g573
S'\x00\x00\x00\x00\x008\x1f@'
tRp1970
sg575
g571
(g573
S'\xa4p=\n\xf7\xa2Q@'
tRp1971
sg577
I9223372036854775807
sssI172
(dp1972
I232
(dp1973
g568
g579
sg570
g571
(g573
S'\x00\x00\x00\x00\x008?@'
tRp1974
sg575
g571
(g573
S'\x90\xc2\xf5(\xdc\x0bR@'
tRp1975
sg577
I9223372036854775807
ssI121
g1604
sI180
(dp1976
g568
g579
sg570
g571
(g573
S'\x00\x00\x00\x00\x008?@'
tRp1977
sg575
g571
(g573
S'\x90\xc2\xf5(\xdc\x0bR@'
tRp1978
sg577
I9223372036854775807
sssI173
(dp1979
I329
(dp1980
g568
g579
sg570
g571
(g573
S'\x00\x00\x00\x00\x008\x1f@'
tRp1981
sg575
g571
(g573
S'\xa4p=\n\xf7\xa2Q@'
tRp1982
sg577
I9223372036854775807
ssI171
g1966
sI177
(dp1983
g568
g579
sg570
g571
(g573
S'\x00\x00\x00\x00\x008/@'
tRp1984
sg575
g571
(g573
S'G\xe1z\x14\xee\xc5Q@'
tRp1985
sg577
I9223372036854775807
ssI433
(dp1986
g568
g579
sg570
g571
(g573
S'\x00\x00\x00\x00\x008/@'
tRp1987
sg575
g571
(g573
S'G\xe1z\x14\xee\xc5Q@'
tRp1988
sg577
I9223372036854775807
sssI174
(dp1989
I81
g1300
sI234
(dp1990
g568
g579
sg570
g571
(g573
S'\x00\x00\x00\x00\x008?@'
tRp1991
sg575
g571
(g573
S'\x90\xc2\xf5(\xdc\x0bR@'
tRp1992
sg577
I9223372036854775807
ssI185
(dp1993
g568
g593
sg570
g571
(g573
S'\x00\x00\x00\x00\x008?@'
tRp1994
sg575
g571
(g573
S'\x85\xebQ\xb8\xde\xc1`@'
tRp1995
sg577
I9223372036854775807
sssI175
(dp1996
I490
(dp1997
g568
g579
sg570
g571
(g573
S'\x00\x00\x00\x00\x008\x1f@'
tRp1998
sg575
g571
(g573
S'\xa4p=\n\xf7\xa2Q@'
tRp1999
sg577
I9223372036854775807
ssI483
(dp2000
g568
g579
sg570
g571
(g573
S'\x00\x00\x00\x00\x008\x1f@'
tRp2001
sg575
g571
(g573
S'\xa4p=\n\xf7\xa2Q@'
tRp2002
sg577
I9223372036854775807
ssI326
(dp2003
g568
g579
sg570
g571
(g573
S'\x00\x00\x00\x00\x008\x1f@'
tRp2004
sg575
g571
(g573
S'\xa4p=\n\xf7\xa2Q@'
tRp2005
sg577
I9223372036854775807
sssI176
(dp2006
I360
(dp2007
g568
g579
sg570
g571
(g573
S'\x00\x00\x00\x00\x008_@'
tRp2008
sg575
g571
(g573
S'>\n\xd7\xa3p\xafS@'
tRp2009
sg577
I9223372036854775807
ssI91
g1364
sI159
g1882
ssI177
(dp2010
I494
(dp2011
g568
g579
sg570
g571
(g573
S'\x00\x00\x00\x00\x008/@'
tRp2012
sg575
g571
(g573
S'G\xe1z\x14\xee\xc5Q@'
tRp2013
sg577
I9223372036854775807
ssI173
g1983
sI182
(dp2014
g568
g579
sg570
g571
(g573
S'\x00\x00\x00\x00\x008/@'
tRp2015
sg575
g571
(g573
S'G\xe1z\x14\xee\xc5Q@'
tRp2016
sg577
I9223372036854775807
ssI438
(dp2017
g568
g579
sg570
g571
(g573
S'\x00\x00\x00\x00\x008/@'
tRp2018
sg575
g571
(g573
S'G\xe1z\x14\xee\xc5Q@'
tRp2019
sg577
I9223372036854775807
sssI178
(dp2020
I369
(dp2021
g568
g579
sg570
g571
(g573
S'\x00\x00\x00\x00\x008?@'
tRp2022
sg575
g571
(g573
S'\x90\xc2\xf5(\xdc\x0bR@'
tRp2023
sg577
I9223372036854775807
ssI239
(dp2024
g568
g579
sg570
g571
(g573
S'\x00\x00\x00\x00\x008?@'
tRp2025
sg575
g571
(g573
S'\x90\xc2\xf5(\xdc\x0bR@'
tRp2026
sg577
I9223372036854775807
ssI135
g1702
ssI179
(dp2027
I279
(dp2028
g568
g593
sg570
g571
(g573
S'\x00\x00\x00\x00\x008O@'
tRp2029
sg575
g571
(g573
S'\n\xd7\xa3p\xbdCa@'
tRp2030
sg577
I9223372036854775807
ssI92
g1368
sI199
(dp2031
g568
g579
sg570
g571
(g573
S'\x00\x00\x00\x00\x008O@'
tRp2032
sg575
g571
(g573
S'\x1e\x85\xebQ\xb8\x97R@'
tRp2033
sg577
I9223372036854775807
sssI180
(dp2034
I240
(dp2035
g568
g579
sg570
g571
(g573
S'\x00\x00\x00\x00\x008?@'
tRp2036
sg575
g571
(g573
S'\x90\xc2\xf5(\xdc\x0bR@'
tRp2037
sg577
I9223372036854775807
ssI129
g1660
sI172
g1976
sI190
(dp2038
g568
g579
sg570
g571
(g573
S'\x00\x00\x00\x00\x008?@'
tRp2039
sg575
g571
(g573
S'\x90\xc2\xf5(\xdc\x0bR@'
tRp2040
sg577
I9223372036854775807
sssI181
(dp2041
I258
(dp2042
g568
g579
sg570
g571
(g573
S'\x00\x00\x00\x00\x008\x1f@'
tRp2043
sg575
g571
(g573
S'\xa4p=\n\xf7\xa2Q@'
tRp2044
sg577
I9223372036854775807
ssI198
(dp2045
g568
g579
sg570
g571
(g573
S'\x00\x00\x00\x00\x008\x1f@'
tRp2046
sg575
g571
(g573
S'\xa4p=\n\xf7\xa2Q@'
tRp2047
sg577
I9223372036854775807
ssI54
g1081
ssI182
(dp2048
I496
(dp2049
g568
g579
sg570
g571
(g573
S'\x00\x00\x00\x00\x008/@'
tRp2050
sg575
g571
(g573
S'G\xe1z\x14\xee\xc5Q@'
tRp2051
sg577
I9223372036854775807
ssI177
g2014
sI186
(dp2052
g568
g579
sg570
g571
(g573
S'\x00\x00\x00\x00\x008/@'
tRp2053
sg575
g571
(g573
S'G\xe1z\x14\xee\xc5Q@'
tRp2054
sg577
I9223372036854775807
ssI444
(dp2055
g568
g579
sg570
g571
(g573
S'\x00\x00\x00\x00\x008/@'
tRp2056
sg575
g571
(g573
S'G\xe1z\x14\xee\xc5Q@'
tRp2057
sg577
I9223372036854775807
sssI183
(dp2058
I193
(dp2059
g568
g579
sg570
g571
(g573
S'\x00\x00\x00\x00\x008?@'
tRp2060
sg575
g571
(g573
S'\x90\xc2\xf5(\xdc\x0bR@'
tRp2061
sg577
I9223372036854775807
ssI133
g1694
sI241
(dp2062
g568
g579
sg570
g571
(g573
S'\x00\x00\x00\x00\x008?@'
tRp2063
sg575
g571
(g573
S'\x90\xc2\xf5(\xdc\x0bR@'
tRp2064
sg577
I9223372036854775807
sssI184
(dp2065
I283
(dp2066
g568
g579
sg570
g571
(g573
S'\x00\x00\x00\x00\x008O@'
tRp2067
sg575
g571
(g573
S'\x1e\x85\xebQ\xb8\x97R@'
tRp2068
sg577
I9223372036854775807
ssI204
(dp2069
g568
g579
sg570
g571
(g573
S'\x00\x00\x00\x00\x008O@'
tRp2070
sg575
g571
(g573
S'\x1e\x85\xebQ\xb8\x97R@'
tRp2071
sg577
I9223372036854775807
ssI94
g1385
sI167
g1938
ssI185
(dp2072
I242
(dp2073
g568
g579
sg570
g571
(g573
S'\x00\x00\x00\x00\x008?@'
tRp2074
sg575
g571
(g573
S'\x90\xc2\xf5(\xdc\x0bR@'
tRp2075
sg577
I9223372036854775807
ssI174
g1993
sI22
g785
ssI186
(dp2076
I192
(dp2077
g568
g579
sg570
g571
(g573
S'\x00\x00\x00\x00\x008/@'
tRp2078
sg575
g571
(g573
S'G\xe1z\x14\xee\xc5Q@'
tRp2079
sg577
I9223372036854775807
ssI450
(dp2080
g568
g579
sg570
g571
(g573
S'\x00\x00\x00\x00\x008/@'
tRp2081
sg575
g571
(g573
S'G\xe1z\x14\xee\xc5Q@'
tRp2082
sg577
I9223372036854775807
ssI500
(dp2083
g568
g579
sg570
g571
(g573
S'\x00\x00\x00\x00\x008/@'
tRp2084
sg575
g571
(g573
S'G\xe1z\x14\xee\xc5Q@'
tRp2085
sg577
I9223372036854775807
ssI182
g2052
ssI187
(dp2086
I140
g1743
sI188
(dp2087
g568
g579
sg570
g571
(g573
S'\x00\x00\x00\x00\x008?@'
tRp2088
sg575
g571
(g573
S'\x90\xc2\xf5(\xdc\x0bR@'
tRp2089
sg577
I9223372036854775807
ssI124
g1622
ssI188
(dp2090
I210
(dp2091
g568
g579
sg570
g571
(g573
S'\x00\x00\x00\x00\x008?@'
tRp2092
sg575
g571
(g573
S'\x90\xc2\xf5(\xdc\x0bR@'
tRp2093
sg577
I9223372036854775807
ssI187
g2087
sI484
(dp2094
g568
g579
sg570
g571
(g573
S'\x00\x00\x00\x00\x008?@'
tRp2095
sg575
g571
(g573
S'\x90\xc2\xf5(\xdc\x0bR@'
tRp2096
sg577
I9223372036854775807
sssI189
(dp2097
I104
g1467
sI410
(dp2098
g568
g579
sg570
g571
(g573
S'\x00\x00\x00\x00\x008/@'
tRp2099
sg575
g571
(g573
S'G\xe1z\x14\xee\xc5Q@'
tRp2100
sg577
I9223372036854775807
ssI359
(dp2101
g568
g579
sg570
g571
(g573
S'\x00\x00\x00\x00\x008/@'
tRp2102
sg575
g571
(g573
S'G\xe1z\x14\xee\xc5Q@'
tRp2103
sg577
I9223372036854775807
sssI190
(dp2104
I180
g2038
sI142
g1757
sI247
(dp2105
g568
g579
sg570
g571
(g573
S'\x00\x00\x00\x00\x008?@'
tRp2106
sg575
g571
(g573
S'\x90\xc2\xf5(\xdc\x0bR@'
tRp2107
sg577
I9223372036854775807
sssI191
(dp2108
I112
g1532
sI505
(dp2109
g568
g579
sg570
g571
(g573
S'\x00\x00\x00\x00\x008/@'
tRp2110
sg575
g571
(g573
S'G\xe1z\x14\xee\xc5Q@'
tRp2111
sg577
I9223372036854775807
ssI194
(dp2112
g568
g579
sg570
g571
(g573
S'\x00\x00\x00\x00\x008/@'
tRp2113
sg575
g571
(g573
S'G\xe1z\x14\xee\xc5Q@'
tRp2114
sg577
I9223372036854775807
ssI30
g871
ssI192
(dp2115
I186
g2077
sI452
(dp2116
g568
g593
sg570
g571
(g573
S'\x00\x00\x00\x00\x008/@'
tRp2117
sg575
g571
(g573
S'\xc2\xf5(\\\xef\x80`@'
tRp2118
sg577
I9223372036854775807
ssI506
(dp2119
g568
g593
sg570
g571
(g573
S'\x00\x00\x00\x00\x008/@'
tRp2120
sg575
g571
(g573
S'\xc2\xf5(\\\xef\x80`@'
tRp2121
sg577
I9223372036854775807
sssI193
(dp2122
I144
g1768
sI248
(dp2123
g568
g579
sg570
g571
(g573
S'\x00\x00\x00\x00\x008?@'
tRp2124
sg575
g571
(g573
S'\x90\xc2\xf5(\xdc\x0bR@'
tRp2125
sg577
I9223372036854775807
ssI203
(dp2126
g568
g579
sg570
g571
(g573
S'\x00\x00\x00\x00\x008?@'
tRp2127
sg575
g571
(g573
S'\x90\xc2\xf5(\xdc\x0bR@'
tRp2128
sg577
I9223372036854775807
ssI183
g2059
ssI194
(dp2129
I201
(dp2130
g568
g579
sg570
g571
(g573
S'\x00\x00\x00\x00\x008/@'
tRp2131
sg575
g571
(g573
S'G\xe1z\x14\xee\xc5Q@'
tRp2132
sg577
I9223372036854775807
ssI455
(dp2133
g568
g579
sg570
g571
(g573
S'\x00\x00\x00\x00\x008/@'
tRp2134
sg575
g571
(g573
S'G\xe1z\x14\xee\xc5Q@'
tRp2135
sg577
I9223372036854775807
ssI509
(dp2136
g568
g579
sg570
g571
(g573
S'\x00\x00\x00\x00\x008/@'
tRp2137
sg575
g571
(g573
S'G\xe1z\x14\xee\xc5Q@'
tRp2138
sg577
I9223372036854775807
ssI191
g2112
ssI195
(dp2139
I146
g1785
sI292
(dp2140
g568
g569
sg570
g571
(g573
S'\x00\x00\x00\x00\x008O@'
tRp2141
sg575
g571
(g573
S'\x99\x99\x99\x99\x99\x8fj@'
tRp2142
sg577
I9223372036854775807
ssI207
(dp2143
g568
g579
sg570
g571
(g573
S'\x00\x00\x00\x00\x008?@'
tRp2144
sg575
g571
(g573
S'\x90\xc2\xf5(\xdc\x0bR@'
tRp2145
sg577
I9223372036854775807
sssI196
(dp2146
I67
g1193
sI147
g1798
sI255
(dp2147
g568
g579
sg570
g571
(g573
S'\x00\x00\x00\x00\x008?@'
tRp2148
sg575
g571
(g573
S'\x90\xc2\xf5(\xdc\x0bR@'
tRp2149
sg577
I9223372036854775807
sssI197
(dp2150
I252
(dp2151
g568
g579
sg570
g571
(g573
S'\x00\x00\x00\x00\x008?@'
tRp2152
sg575
g571
(g573
S'\x90\xc2\xf5(\xdc\x0bR@'
tRp2153
sg577
I9223372036854775807
ssI148
g1805
sI135
g1705
ssI198
(dp2154
I56
g1098
sI352
(dp2155
g568
g579
sg570
g571
(g573
S'\x00\x00\x00\x00\x008\x1f@'
tRp2156
sg575
g571
(g573
S'\xa4p=\n\xf7\xa2Q@'
tRp2157
sg577
I9223372036854775807
ssI202
(dp2158
g568
g579
sg570
g571
(g573
S'\x00\x00\x00\x00\x008\x1f@'
tRp2159
sg575
g571
(g573
S'\xa4p=\n\xf7\xa2Q@'
tRp2160
sg577
I9223372036854775807
ssI181
g2045
ssI199
(dp2161
I226
(dp2162
g568
g579
sg570
g571
(g573
S'\x00\x00\x00\x00\x008O@'
tRp2163
sg575
g571
(g573
S'\x1e\x85\xebQ\xb8\x97R@'
tRp2164
sg577
I9223372036854775807
ssI179
g2031
sI102
g1447
sI295
(dp2165
g568
g579
sg570
g571
(g573
S'\x00\x00\x00\x00\x008O@'
tRp2166
sg575
g571
(g573
S'\x1e\x85\xebQ\xb8\x97R@'
tRp2167
sg577
I9223372036854775807
sssI200
(dp2168
I96
g1399
sI296
(dp2169
g568
g579
sg570
g571
(g573
S'\x00\x00\x00\x00\x008O@'
tRp2170
sg575
g571
(g573
S'\x1e\x85\xebQ\xb8\x97R@'
tRp2171
sg577
I9223372036854775807
ssI227
(dp2172
g568
g579
sg570
g571
(g573
S'\x00\x00\x00\x00\x008O@'
tRp2173
sg575
g571
(g573
S'\x1e\x85\xebQ\xb8\x97R@'
tRp2174
sg577
I9223372036854775807
ssI517
(dp2175
g568
g579
sg570
g571
(g573
S'\x00\x00\x00\x00\x008O@'
tRp2176
sg575
g571
(g573
S'\x1e\x85\xebQ\xb8\x97R@'
tRp2177
sg577
I9223372036854775807
sssI201
(dp2178
I513
(dp2179
g568
g579
sg570
g571
(g573
S'\x00\x00\x00\x00\x008/@'
tRp2180
sg575
g571
(g573
S'G\xe1z\x14\xee\xc5Q@'
tRp2181
sg577
I9223372036854775807
ssI194
g2130
sI459
(dp2182
g568
g579
sg570
g571
(g573
S'\x00\x00\x00\x00\x008/@'
tRp2183
sg575
g571
(g573
S'G\xe1z\x14\xee\xc5Q@'
tRp2184
sg577
I9223372036854775807
sssI202
(dp2185
I58
g1112
sI354
(dp2186
g568
g579
sg570
g571
(g573
S'\x00\x00\x00\x00\x008\x1f@'
tRp2187
sg575
g571
(g573
S'\xa4p=\n\xf7\xa2Q@'
tRp2188
sg577
I9223372036854775807
ssI205
(dp2189
g568
g579
sg570
g571
(g573
S'\x00\x00\x00\x00\x008\x1f@'
tRp2190
sg575
g571
(g573
S'\xa4p=\n\xf7\xa2Q@'
tRp2191
sg577
I9223372036854775807
ssI198
g2158
ssI203
(dp2192
I193
g2126
sI515
(dp2193
g568
g579
sg570
g571
(g573
S'\x00\x00\x00\x00\x008/@'
tRp2194
sg575
g571
(g573
S'G\xe1z\x14\xee\xc5Q@'
tRp2195
sg577
I9223372036854775807
ssI461
(dp2196
g568
g579
sg570
g571
(g573
S'\x00\x00\x00\x00\x008/@'
tRp2197
sg575
g571
(g573
S'G\xe1z\x14\xee\xc5Q@'
tRp2198
sg577
I9223372036854775807
ssI209
(dp2199
g568
g579
sg570
g571
(g573
S'\x00\x00\x00\x00\x008/@'
tRp2200
sg575
g571
(g573
S'G\xe1z\x14\xee\xc5Q@'
tRp2201
sg577
I9223372036854775807
sssI204
(dp2202
I184
g2069
sI232
(dp2203
g568
g579
sg570
g571
(g573
S'\x00\x00\x00\x00\x008O@'
tRp2204
sg575
g571
(g573
S'\x1e\x85\xebQ\xb8\x97R@'
tRp2205
sg577
I9223372036854775807
ssI106
g1490
sI300
(dp2206
g568
g593
sg570
g571
(g573
S'\x00\x00\x00\x00\x008O@'
tRp2207
sg575
g571
(g573
S'\n\xd7\xa3p\xbdCa@'
tRp2208
sg577
I9223372036854775807
sssI205
(dp2209
I208
(dp2210
g568
g579
sg570
g571
(g573
S'\x00\x00\x00\x00\x008\x1f@'
tRp2211
sg575
g571
(g573
S'\xa4p=\n\xf7\xa2Q@'
tRp2212
sg577
I9223372036854775807
ssI202
g2189
sI59
g1125
ssI206
(dp2213
I465
(dp2214
g568
g579
sg570
g571
(g573
S'\x00\x00\x00\x00\x008/@'
tRp2215
sg575
g571
(g573
S'G\xe1z\x14\xee\xc5Q@'
tRp2216
sg577
I9223372036854775807
ssI213
(dp2217
g568
g579
sg570
g571
(g573
S'\x00\x00\x00\x00\x008/@'
tRp2218
sg575
g571
(g573
S'G\xe1z\x14\xee\xc5Q@'
tRp2219
sg577
I9223372036854775807
ssI518
(dp2220
g568
g579
sg570
g571
(g573
S'\x00\x00\x00\x00\x008/@'
tRp2221
sg575
g571
(g573
S'G\xe1z\x14\xee\xc5Q@'
tRp2222
sg577
I9223372036854775807
sssI207
(dp2223
I155
g1857
sI220
(dp2224
g568
g579
sg570
g571
(g573
S'\x00\x00\x00\x00\x008?@'
tRp2225
sg575
g571
(g573
S'\x90\xc2\xf5(\xdc\x0bR@'
tRp2226
sg577
I9223372036854775807
ssI195
g2143
ssI208
(dp2227
I205
g2210
sI62
g1149
sI519
(dp2228
g568
g579
sg570
g571
(g573
S'\x00\x00\x00\x00\x008/@'
tRp2229
sg575
g571
(g573
S'G\xe1z\x14\xee\xc5Q@'
tRp2230
sg577
I9223372036854775807
sssI209
(dp2231
I216
(dp2232
g568
g579
sg570
g571
(g573
S'\x00\x00\x00\x00\x008/@'
tRp2233
sg575
g571
(g573
S'G\xe1z\x14\xee\xc5Q@'
tRp2234
sg577
I9223372036854775807
ssI520
(dp2235
g568
g579
sg570
g571
(g573
S'\x00\x00\x00\x00\x008/@'
tRp2236
sg575
g571
(g573
S'G\xe1z\x14\xee\xc5Q@'
tRp2237
sg577
I9223372036854775807
ssI203
g2199
sI468
(dp2238
g568
g579
sg570
g571
(g573
S'\x00\x00\x00\x00\x008/@'
tRp2239
sg575
g571
(g573
S'G\xe1z\x14\xee\xc5Q@'
tRp2240
sg577
I9223372036854775807
sssI210
(dp2241
I298
(dp2242
g568
g579
sg570
g571
(g573
S'\x00\x00\x00\x00\x008?@'
tRp2243
sg575
g571
(g573
S'\x90\xc2\xf5(\xdc\x0bR@'
tRp2244
sg577
I9223372036854775807
ssI188
g2091
sI262
(dp2245
g568
g579
sg570
g571
(g573
S'\x00\x00\x00\x00\x008?@'
tRp2246
sg575
g571
(g573
S'\x90\xc2\xf5(\xdc\x0bR@'
tRp2247
sg577
I9223372036854775807
ssI158
g1875
ssI211
(dp2248
I170
g1959
sI387
(dp2249
g568
g579
sg570
g571
(g573
S'\x00\x00\x00\x00\x008_@'
tRp2250
sg575
g571
(g573
S'>\n\xd7\xa3p\xafS@'
tRp2251
sg577
I9223372036854775807
ssI250
(dp2252
g568
g593
sg570
g571
(g573
S'\x00\x00\x00\x00\x008_@'
tRp2253
sg575
g571
(g573
S'\x15\xaeG\xe1zGb@'
tRp2254
sg577
I9223372036854775807
sssI212
(dp2255
I297
(dp2256
g568
g569
sg570
g571
(g573
S'\x00\x00\x00\x00\x008\x1f@'
tRp2257
sg575
g571
(g573
S'3333\xf31i@'
tRp2258
sg577
I9223372036854775807
ssI139
g1739
sI243
(dp2259
g568
g569
sg570
g571
(g573
S'\x00\x00\x00\x00\x008/@'
tRp2260
sg575
g571
(g573
S'ffff\xe6ci@'
tRp2261
sg577
I9223372036854775807
sssI213
(dp2262
I214
(dp2263
g568
g579
sg570
g571
(g573
S'\x00\x00\x00\x00\x008\x0f@'
tRp2264
sg575
g571
(g573
S'R\xb8\x1e\x85{\x91Q@'
tRp2265
sg577
I9223372036854775807
ssI523
(dp2266
g568
g579
sg570
g571
(g573
S'\x00\x00\x00\x00\x008/@'
tRp2267
sg575
g571
(g573
S'G\xe1z\x14\xee\xc5Q@'
tRp2268
sg577
I9223372036854775807
ssI206
g2217
sI126
g1642
ssI214
(dp2269
I217
(dp2270
g568
g569
sg570
g571
(g573
S'\x00\x00\x00\x00\x008\x0f@'
tRp2271
sg575
g571
(g573
S'\x9a\x99\x99\x99\xf9\x18i@'
tRp2272
sg577
I9223372036854775807
ssI213
g2263
sI127
g1646
ssI215
(dp2273
I525
(dp2274
g568
g593
sg570
g571
(g573
S'\x00\x00\x00\x00\x008/@'
tRp2275
sg575
g571
(g573
S'\xc2\xf5(\\\xef\x80`@'
tRp2276
sg577
I9223372036854775807
ssI222
(dp2277
g568
g579
sg570
g571
(g573
S'\x00\x00\x00\x00\x008/@'
tRp2278
sg575
g571
(g573
S'G\xe1z\x14\xee\xc5Q@'
tRp2279
sg577
I9223372036854775807
ssI111
g1528
ssI216
(dp2280
I209
g2232
sI291
(dp2281
g568
g579
sg570
g571
(g573
S'\x00\x00\x00\x00\x008/@'
tRp2282
sg575
g571
(g573
S'G\xe1z\x14\xee\xc5Q@'
tRp2283
sg577
I9223372036854775807
ssI526
(dp2284
g568
g579
sg570
g571
(g573
S'\x00\x00\x00\x00\x008/@'
tRp2285
sg575
g571
(g573
S'G\xe1z\x14\xee\xc5Q@'
tRp2286
sg577
I9223372036854775807
ssI473
(dp2287
g568
g579
sg570
g571
(g573
S'\x00\x00\x00\x00\x008/@'
tRp2288
sg575
g571
(g573
S'G\xe1z\x14\xee\xc5Q@'
tRp2289
sg577
I9223372036854775807
sssI217
(dp2290
I219
(dp2291
g568
g569
sg570
g571
(g573
S'\x00\x00\x00\x00\x008\x1f@'
tRp2292
sg575
g571
(g573
S'3333\xf31i@'
tRp2293
sg577
I9223372036854775807
ssI214
g2270
sI150
g1822
ssI218
(dp2294
I499
(dp2295
g568
g593
sg570
g571
(g573
S'\x00\x00\x00\x00\x008?@'
tRp2296
sg575
g571
(g573
S'\x85\xebQ\xb8\xde\xc1`@'
tRp2297
sg577
I9223372036854775807
ssI436
(dp2298
g568
g579
sg570
g571
(g573
S'\x00\x00\x00\x00\x008?@'
tRp2299
sg575
g571
(g573
S'\x90\xc2\xf5(\xdc\x0bR@'
tRp2300
sg577
I9223372036854775807
ssI157
g1868
ssI219
(dp2301
I528
(dp2302
g568
g569
sg570
g571
(g573
S'\x00\x00\x00\x00\x008/@'
tRp2303
sg575
g571
(g573
S'ffff\xe6ci@'
tRp2304
sg577
I9223372036854775807
ssI217
g2291
sI68
g1200
ssI220
(dp2305
I24
g808
sI241
(dp2306
g568
g579
sg570
g571
(g573
S'\x00\x00\x00\x00\x008O@'
tRp2307
sg575
g571
(g573
S'\x1e\x85\xebQ\xb8\x97R@'
tRp2308
sg577
I9223372036854775807
ssI305
(dp2309
g568
g579
sg570
g571
(g573
S'\x00\x00\x00\x00\x008O@'
tRp2310
sg575
g571
(g573
S'\x1e\x85\xebQ\xb8\x97R@'
tRp2311
sg577
I9223372036854775807
ssI207
g2224
ssI221
(dp2312
I304
(dp2313
g568
g579
sg570
g571
(g573
S'\x00\x00\x00\x00\x008?@'
tRp2314
sg575
g571
(g573
S'\x90\xc2\xf5(\xdc\x0bR@'
tRp2315
sg577
I9223372036854775807
ssI257
(dp2316
g568
g579
sg570
g571
(g573
S'\x00\x00\x00\x00\x008?@'
tRp2317
sg575
g571
(g573
S'\x90\xc2\xf5(\xdc\x0bR@'
tRp2318
sg577
I9223372036854775807
ssI344
(dp2319
g568
g579
sg570
g571
(g573
S'\x00\x00\x00\x00\x008?@'
tRp2320
sg575
g571
(g573
S'\x90\xc2\xf5(\xdc\x0bR@'
tRp2321
sg577
I9223372036854775807
ssI289
(dp2322
g568
g579
sg570
g571
(g573
S'\x00\x00\x00\x00\x008?@'
tRp2323
sg575
g571
(g573
S'\x90\xc2\xf5(\xdc\x0bR@'
tRp2324
sg577
I9223372036854775807
sssI222
(dp2325
I427
(dp2326
g568
g579
sg570
g571
(g573
S'\x00\x00\x00\x00\x008/@'
tRp2327
sg575
g571
(g573
S'G\xe1z\x14\xee\xc5Q@'
tRp2328
sg577
I9223372036854775807
ssI229
(dp2329
g568
g579
sg570
g571
(g573
S'\x00\x00\x00\x00\x008/@'
tRp2330
sg575
g571
(g573
S'G\xe1z\x14\xee\xc5Q@'
tRp2331
sg577
I9223372036854775807
ssI215
g2277
ssI223
(dp2332
I81
g1303
sI26
g831
sI234
(dp2333
g568
g579
sg570
g571
(g573
S'\x00\x00\x00\x00\x008?@'
tRp2334
sg575
g571
(g573
S'\x90\xc2\xf5(\xdc\x0bR@'
tRp2335
sg577
I9223372036854775807
sssI224
(dp2336
I480
(dp2337
g568
g579
sg570
g571
(g573
S'\x00\x00\x00\x00\x008/@'
tRp2338
sg575
g571
(g573
S'G\xe1z\x14\xee\xc5Q@'
tRp2339
sg577
I9223372036854775807
ssI530
(dp2340
g568
g579
sg570
g571
(g573
S'\x00\x00\x00\x00\x008/@'
tRp2341
sg575
g571
(g573
S'G\xe1z\x14\xee\xc5Q@'
tRp2342
sg577
I9223372036854775807
ssI231
(dp2343
g568
g579
sg570
g571
(g573
S'\x00\x00\x00\x00\x008/@'
tRp2344
sg575
g571
(g573
S'G\xe1z\x14\xee\xc5Q@'
tRp2345
sg577
I9223372036854775807
sssI225
(dp2346
I481
(dp2347
g568
g579
sg570
g571
(g573
S'\x00\x00\x00\x00\x008/@'
tRp2348
sg575
g571
(g573
S'G\xe1z\x14\xee\xc5Q@'
tRp2349
sg577
I9223372036854775807
ssI531
(dp2350
g568
g569
sg570
g571
(g573
S'\x00\x00\x00\x00\x008/@'
tRp2351
sg575
g571
(g573
S'ffff\xe6ci@'
tRp2352
sg577
I9223372036854775807
ssI233
(dp2353
g568
g569
sg570
g571
(g573
S'\x00\x00\x00\x00\x008/@'
tRp2354
sg575
g571
(g573
S'ffff\xe6ci@'
tRp2355
sg577
I9223372036854775807
sssI226
(dp2356
I199
g2162
sI308
(dp2357
g568
g579
sg570
g571
(g573
S'\x00\x00\x00\x00\x008O@'
tRp2358
sg575
g571
(g573
S'\x1e\x85\xebQ\xb8\x97R@'
tRp2359
sg577
I9223372036854775807
ssI119
g1581
ssI227
(dp2360
I200
g2172
sI267
(dp2361
g568
g579
sg570
g571
(g573
S'\x00\x00\x00\x00\x008?@'
tRp2362
sg575
g571
(g573
S'\x90\xc2\xf5(\xdc\x0bR@'
tRp2363
sg577
I9223372036854775807
ssI237
(dp2364
g568
g579
sg570
g571
(g573
S'\x00\x00\x00\x00\x008?@'
tRp2365
sg575
g571
(g573
S'\x90\xc2\xf5(\xdc\x0bR@'
tRp2366
sg577
I9223372036854775807
sssI228
(dp2367
I164
g1908
sI125
g1635
sI390
(dp2368
g568
g579
sg570
g571
(g573
S'\x00\x00\x00\x00\x008/@'
tRp2369
sg575
g571
(g573
S'G\xe1z\x14\xee\xc5Q@'
tRp2370
sg577
I9223372036854775807
sssI229
(dp2371
I534
(dp2372
g568
g579
sg570
g571
(g573
S'\x00\x00\x00\x00\x008/@'
tRp2373
sg575
g571
(g573
S'G\xe1z\x14\xee\xc5Q@'
tRp2374
sg577
I9223372036854775807
ssI222
g2329
sI239
(dp2375
g568
g579
sg570
g571
(g573
S'\x00\x00\x00\x00\x008?@'
tRp2376
sg575
g571
(g573
S'\x90\xc2\xf5(\xdc\x0bR@'
tRp2377
sg577
I9223372036854775807
sssI230
(dp2378
I291
(dp2379
g568
g579
sg570
g571
(g573
S'\x00\x00\x00\x00\x008/@'
tRp2380
sg575
g571
(g573
S'G\xe1z\x14\xee\xc5Q@'
tRp2381
sg577
I9223372036854775807
ssI268
(dp2382
g568
g593
sg570
g571
(g573
S'\x00\x00\x00\x00\x008?@'
tRp2383
sg575
g571
(g573
S'\x85\xebQ\xb8\xde\xc1`@'
tRp2384
sg577
I9223372036854775807
ssI486
(dp2385
g568
g593
sg570
g571
(g573
S'\x00\x00\x00\x00\x008/@'
tRp2386
sg575
g571
(g573
S'\xc2\xf5(\\\xef\x80`@'
tRp2387
sg577
I9223372036854775807
sssI231
(dp2388
I224
g2343
sI488
(dp2389
g568
g579
sg570
g571
(g573
S'\x00\x00\x00\x00\x008/@'
tRp2390
sg575
g571
(g573
S'G\xe1z\x14\xee\xc5Q@'
tRp2391
sg577
I9223372036854775807
ssI235
(dp2392
g568
g579
sg570
g571
(g573
S'\x00\x00\x00\x00\x008/@'
tRp2393
sg575
g571
(g573
S'G\xe1z\x14\xee\xc5Q@'
tRp2394
sg577
I9223372036854775807
ssI535
(dp2395
g568
g579
sg570
g571
(g573
S'\x00\x00\x00\x00\x008/@'
tRp2396
sg575
g571
(g573
S'G\xe1z\x14\xee\xc5Q@'
tRp2397
sg577
I9223372036854775807
sssI232
(dp2398
I240
(dp2399
g568
g579
sg570
g571
(g573
S'\x00\x00\x00\x00\x008?@'
tRp2400
sg575
g571
(g573
S'\x90\xc2\xf5(\xdc\x0bR@'
tRp2401
sg577
I9223372036854775807
ssI204
g2203
sI172
g1973
sI312
(dp2402
g568
g579
sg570
g571
(g573
S'\x00\x00\x00\x00\x008O@'
tRp2403
sg575
g571
(g573
S'\x1e\x85\xebQ\xb8\x97R@'
tRp2404
sg577
I9223372036854775807
sssI233
(dp2405
I225
g2353
sI466
(dp2406
g568
g579
sg570
g571
(g573
S'\x00\x00\x00\x00\x008/@'
tRp2407
sg575
g571
(g573
S'G\xe1z\x14\xee\xc5Q@'
tRp2408
sg577
I9223372036854775807
ssI236
(dp2409
g568
g569
sg570
g571
(g573
S'\x00\x00\x00\x00\x008/@'
tRp2410
sg575
g571
(g573
S'ffff\xe6ci@'
tRp2411
sg577
I9223372036854775807
ssI489
(dp2412
g568
g579
sg570
g571
(g573
S'\x00\x00\x00\x00\x008/@'
tRp2413
sg575
g571
(g573
S'G\xe1z\x14\xee\xc5Q@'
tRp2414
sg577
I9223372036854775807
sssI234
(dp2415
I273
(dp2416
g568
g579
sg570
g571
(g573
S'\x00\x00\x00\x00\x008?@'
tRp2417
sg575
g571
(g573
S'\x90\xc2\xf5(\xdc\x0bR@'
tRp2418
sg577
I9223372036854775807
ssI242
(dp2419
g568
g579
sg570
g571
(g573
S'\x00\x00\x00\x00\x008?@'
tRp2420
sg575
g571
(g573
S'\x90\xc2\xf5(\xdc\x0bR@'
tRp2421
sg577
I9223372036854775807
ssI174
g1990
sI223
g2333
ssI235
(dp2422
I540
(dp2423
g568
g593
sg570
g571
(g573
S'\x00\x00\x00\x00\x008/@'
tRp2424
sg575
g571
(g573
S'\xc2\xf5(\\\xef\x80`@'
tRp2425
sg577
I9223372036854775807
ssI492
(dp2426
g568
g593
sg570
g571
(g573
S'\x00\x00\x00\x00\x008/@'
tRp2427
sg575
g571
(g573
S'\xc2\xf5(\\\xef\x80`@'
tRp2428
sg577
I9223372036854775807
ssI231
g2392
ssI236
(dp2429
I233
g2409
sI493
(dp2430
g568
g569
sg570
g571
(g573
S'\x00\x00\x00\x00\x008/@'
tRp2431
sg575
g571
(g573
S'ffff\xe6ci@'
tRp2432
sg577
I9223372036854775807
ssI542
(dp2433
g568
g579
sg570
g571
(g573
S'\x00\x00\x00\x00\x008/@'
tRp2434
sg575
g571
(g573
S'G\xe1z\x14\xee\xc5Q@'
tRp2435
sg577
I9223372036854775807
sssI237
(dp2436
I274
(dp2437
g568
g579
sg570
g571
(g573
S'\x00\x00\x00\x00\x008?@'
tRp2438
sg575
g571
(g573
S'\x90\xc2\xf5(\xdc\x0bR@'
tRp2439
sg577
I9223372036854775807
ssI227
g2364
sI244
(dp2440
g568
g579
sg570
g571
(g573
S'\x00\x00\x00\x00\x008?@'
tRp2441
sg575
g571
(g573
S'\x90\xc2\xf5(\xdc\x0bR@'
tRp2442
sg577
I9223372036854775807
sssI238
(dp2443
I128
g1656
sI154
g1850
sI276
(dp2444
g568
g593
sg570
g571
(g573
S'\x00\x00\x00\x00\x008?@'
tRp2445
sg575
g571
(g573
S'\x85\xebQ\xb8\xde\xc1`@'
tRp2446
sg577
I9223372036854775807
ssI245
(dp2447
g568
g593
sg570
g571
(g573
S'\x00\x00\x00\x00\x008?@'
tRp2448
sg575
g571
(g573
S'\x85\xebQ\xb8\xde\xc1`@'
tRp2449
sg577
I9223372036854775807
sssI239
(dp2450
I178
g2024
sI229
g2375
sI246
(dp2451
g568
g579
sg570
g571
(g573
S'\x00\x00\x00\x00\x008?@'
tRp2452
sg575
g571
(g573
S'\x90\xc2\xf5(\xdc\x0bR@'
tRp2453
sg577
I9223372036854775807
ssI277
(dp2454
g568
g579
sg570
g571
(g573
S'\x00\x00\x00\x00\x008?@'
tRp2455
sg575
g571
(g573
S'\x90\xc2\xf5(\xdc\x0bR@'
tRp2456
sg577
I9223372036854775807
sssI240
(dp2457
I232
g2399
sI180
g2035
sI247
(dp2458
g568
g579
sg570
g571
(g573
S'\x00\x00\x00\x00\x008?@'
tRp2459
sg575
g571
(g573
S'\x90\xc2\xf5(\xdc\x0bR@'
tRp2460
sg577
I9223372036854775807
sssI241
(dp2461
I248
(dp2462
g568
g579
sg570
g571
(g573
S'\x00\x00\x00\x00\x008?@'
tRp2463
sg575
g571
(g573
S'\x90\xc2\xf5(\xdc\x0bR@'
tRp2464
sg577
I9223372036854775807
ssI323
(dp2465
g568
g579
sg570
g571
(g573
S'\x00\x00\x00\x00\x008O@'
tRp2466
sg575
g571
(g573
S'\x1e\x85\xebQ\xb8\x97R@'
tRp2467
sg577
I9223372036854775807
ssI220
g2306
sI183
g2062
ssI242
(dp2468
I185
g2073
sI234
g2419
sI284
(dp2469
g568
g579
sg570
g571
(g573
S'\x00\x00\x00\x00\x008?@'
tRp2470
sg575
g571
(g573
S'\x90\xc2\xf5(\xdc\x0bR@'
tRp2471
sg577
I9223372036854775807
sssI243
(dp2472
I348
(dp2473
g568
g569
sg570
g571
(g573
S'\x00\x00\x00\x00\x008?@'
tRp2474
sg575
g571
(g573
S'\xcd\xcc\xcc\xcc\xcc\xc7i@'
tRp2475
sg577
I9223372036854775807
ssI18
g754
sI212
g2259
sI306
(dp2476
g568
g579
sg570
g571
(g573
S'\x00\x00\x00\x00\x008?@'
tRp2477
sg575
g571
(g573
S'\x90\xc2\xf5(\xdc\x0bR@'
tRp2478
sg577
I9223372036854775807
sssI244
(dp2479
I57
g1105
sI237
g2440
sI285
(dp2480
g568
g569
sg570
g571
(g573
S'\x00\x00\x00\x00\x008?@'
tRp2481
sg575
g571
(g573
S'\xcd\xcc\xcc\xcc\xcc\xc7i@'
tRp2482
sg577
I9223372036854775807
sssI245
(dp2483
I251
(dp2484
g568
g593
sg570
g571
(g573
S'\x00\x00\x00\x00\x008?@'
tRp2485
sg575
g571
(g573
S'\x85\xebQ\xb8\xde\xc1`@'
tRp2486
sg577
I9223372036854775807
ssI286
(dp2487
g568
g579
sg570
g571
(g573
S'\x00\x00\x00\x00\x008?@'
tRp2488
sg575
g571
(g573
S'\x90\xc2\xf5(\xdc\x0bR@'
tRp2489
sg577
I9223372036854775807
ssI238
g2447
ssI246
(dp2490
I239
g2451
sI252
(dp2491
g568
g579
sg570
g571
(g573
S'\x00\x00\x00\x00\x008?@'
tRp2492
sg575
g571
(g573
S'\x90\xc2\xf5(\xdc\x0bR@'
tRp2493
sg577
I9223372036854775807
ssI149
g1815
sI135
g1708
ssI247
(dp2494
I240
g2458
sI332
(dp2495
g568
g579
sg570
g571
(g573
S'\x00\x00\x00\x00\x008O@'
tRp2496
sg575
g571
(g573
S'\x1e\x85\xebQ\xb8\x97R@'
tRp2497
sg577
I9223372036854775807
ssI190
g2105
ssI248
(dp2498
I193
g2123
sI498
(dp2499
g568
g579
sg570
g571
(g573
S'\x00\x00\x00\x00\x008?@'
tRp2500
sg575
g571
(g573
S'\x90\xc2\xf5(\xdc\x0bR@'
tRp2501
sg577
I9223372036854775807
ssI241
g2462
ssI249
(dp2502
I145
g1775
sI347
(dp2503
g568
g579
sg570
g571
(g573
S'\x00\x00\x00\x00\x008O@'
tRp2504
sg575
g571
(g573
S'\x1e\x85\xebQ\xb8\x97R@'
tRp2505
sg577
I9223372036854775807
ssI289
(dp2506
g568
g579
sg570
g571
(g573
S'\x00\x00\x00\x00\x008?@'
tRp2507
sg575
g571
(g573
S'\x90\xc2\xf5(\xdc\x0bR@'
tRp2508
sg577
I9223372036854775807
ssI257
(dp2509
g568
g579
sg570
g571
(g573
S'\x00\x00\x00\x00\x008?@'
tRp2510
sg575
g571
(g573
S'\x90\xc2\xf5(\xdc\x0bR@'
tRp2511
sg577
I9223372036854775807
sssI250
(dp2512
I281
(dp2513
g568
g593
sg570
g571
(g573
S'\x00\x00\x00\x00\x008_@'
tRp2514
sg575
g571
(g573
S'\x15\xaeG\xe1zGb@'
tRp2515
sg577
I9223372036854775807
ssI211
g2252
sI425
(dp2516
g568
g593
sg570
g571
(g573
S'\x00\x00\x00\x00\x008_@'
tRp2517
sg575
g571
(g573
S'\x15\xaeG\xe1zGb@'
tRp2518
sg577
I9223372036854775807
sssI251
(dp2519
I393
(dp2520
g568
g579
sg570
g571
(g573
S'\x00\x00\x00\x00\x008\x1f@'
tRp2521
sg575
g571
(g573
S'\xa4p=\n\xf7\xa2Q@'
tRp2522
sg577
I9223372036854775807
ssI147
g1795
sI245
g2484
sI253
(dp2523
g568
g569
sg570
g571
(g573
S'\x00\x00\x00\x00\x008\x1f@'
tRp2524
sg575
g571
(g573
S'3333\xf31i@'
tRp2525
sg577
I9223372036854775807
sssI252
(dp2526
I26
g828
sI197
g2151
sI246
g2491
sI293
(dp2527
g568
g579
sg570
g571
(g573
S'\x00\x00\x00\x00\x008?@'
tRp2528
sg575
g571
(g573
S'\x90\xc2\xf5(\xdc\x0bR@'
tRp2529
sg577
I9223372036854775807
sssI253
(dp2530
I320
(dp2531
g568
g569
sg570
g571
(g573
S'\x00\x00\x00\x00\x008\x0f@'
tRp2532
sg575
g571
(g573
S'\x9a\x99\x99\x99\xf9\x18i@'
tRp2533
sg577
I9223372036854775807
ssI251
g2523
sI254
(dp2534
g568
g593
sg570
g571
(g573
S'\x00\x00\x00\x00\x008\x0f@'
tRp2535
sg575
g571
(g573
S'q=\n\xd7;P`@'
tRp2536
sg577
I9223372036854775807
sssI254
(dp2537
I256
(dp2538
g568
g593
sg570
g571
(g573
S'\x00\x00\x00\x00\x008\x0f@'
tRp2539
sg575
g571
(g573
S'q=\n\xd7;P`@'
tRp2540
sg577
I9223372036854775807
ssI253
g2534
sI375
(dp2541
g568
g579
sg570
g571
(g573
S'\x00\x00\x00\x00\x008\x0f@'
tRp2542
sg575
g571
(g573
S'R\xb8\x1e\x85{\x91Q@'
tRp2543
sg577
I9223372036854775807
sssI255
(dp2544
I72
g1234
sI536
(dp2545
g568
g579
sg570
g571
(g573
S'\x00\x00\x00\x00\x008?@'
tRp2546
sg575
g571
(g573
S'\x90\xc2\xf5(\xdc\x0bR@'
tRp2547
sg577
I9223372036854775807
ssI196
g2147
sI117
g1570
ssI256
(dp2548
I259
(dp2549
g568
g593
sg570
g571
(g573
S'\x00\x00\x00\x00\x008\x1f@'
tRp2550
sg575
g571
(g573
S'\xe1z\x14\xaew``@'
tRp2551
sg577
I9223372036854775807
ssI324
(dp2552
g568
g579
sg570
g571
(g573
S'\x00\x00\x00\x00\x008\x0f@'
tRp2553
sg575
g571
(g573
S'R\xb8\x1e\x85{\x91Q@'
tRp2554
sg577
I9223372036854775807
ssI254
g2538
ssI257
(dp2555
I264
(dp2556
g568
g579
sg570
g571
(g573
S'\x00\x00\x00\x00\x008?@'
tRp2557
sg575
g571
(g573
S'\x90\xc2\xf5(\xdc\x0bR@'
tRp2558
sg577
I9223372036854775807
ssI249
g2509
sI221
g2316
ssI258
(dp2559
I352
(dp2560
g568
g579
sg570
g571
(g573
S'\x00\x00\x00\x00\x008\x1f@'
tRp2561
sg575
g571
(g573
S'\xa4p=\n\xf7\xa2Q@'
tRp2562
sg577
I9223372036854775807
ssI181
g2042
sI510
(dp2563
g568
g579
sg570
g571
(g573
S'\x00\x00\x00\x00\x008\x1f@'
tRp2564
sg575
g571
(g573
S'\xa4p=\n\xf7\xa2Q@'
tRp2565
sg577
I9223372036854775807
sssI259
(dp2566
I256
g2549
sI403
(dp2567
g568
g579
sg570
g571
(g573
S'\x00\x00\x00\x00\x008\x1f@'
tRp2568
sg575
g571
(g573
S'\xa4p=\n\xf7\xa2Q@'
tRp2569
sg577
I9223372036854775807
ssI261
(dp2570
g568
g593
sg570
g571
(g573
S'\x00\x00\x00\x00\x008\x1f@'
tRp2571
sg575
g571
(g573
S'\xe1z\x14\xaew``@'
tRp2572
sg577
I9223372036854775807
sssI260
(dp2573
I520
(dp2574
g568
g579
sg570
g571
(g573
S'\x00\x00\x00\x00\x008/@'
tRp2575
sg575
g571
(g573
S'G\xe1z\x14\xee\xc5Q@'
tRp2576
sg577
I9223372036854775807
ssI498
(dp2577
g568
g579
sg570
g571
(g573
S'\x00\x00\x00\x00\x008/@'
tRp2578
sg575
g571
(g573
S'G\xe1z\x14\xee\xc5Q@'
tRp2579
sg577
I9223372036854775807
ssI263
(dp2580
g568
g579
sg570
g571
(g573
S'\x00\x00\x00\x00\x008/@'
tRp2581
sg575
g571
(g573
S'G\xe1z\x14\xee\xc5Q@'
tRp2582
sg577
I9223372036854775807
sssI261
(dp2583
I266
(dp2584
g568
g593
sg570
g571
(g573
S'\x00\x00\x00\x00\x008?@'
tRp2585
sg575
g571
(g573
S'\x85\xebQ\xb8\xde\xc1`@'
tRp2586
sg577
I9223372036854775807
ssI259
g2570
sI406
(dp2587
g568
g579
sg570
g571
(g573
S'\x00\x00\x00\x00\x008\x1f@'
tRp2588
sg575
g571
(g573
S'\xa4p=\n\xf7\xa2Q@'
tRp2589
sg577
I9223372036854775807
sssI262
(dp2590
I210
g2245
sI165
g1924
sI301
(dp2591
g568
g579
sg570
g571
(g573
S'\x00\x00\x00\x00\x008?@'
tRp2592
sg575
g571
(g573
S'\x90\xc2\xf5(\xdc\x0bR@'
tRp2593
sg577
I9223372036854775807
sssI263
(dp2594
I268
(dp2595
g568
g579
sg570
g571
(g573
S'\x00\x00\x00\x00\x008?@'
tRp2596
sg575
g571
(g573
S'\x90\xc2\xf5(\xdc\x0bR@'
tRp2597
sg577
I9223372036854775807
ssI260
g2580
sI526
(dp2598
g568
g579
sg570
g571
(g573
S'\x00\x00\x00\x00\x008/@'
tRp2599
sg575
g571
(g573
S'G\xe1z\x14\xee\xc5Q@'
tRp2600
sg577
I9223372036854775807
sssI264
(dp2601
I304
(dp2602
g568
g593
sg570
g571
(g573
S'\x00\x00\x00\x00\x008?@'
tRp2603
sg575
g571
(g573
S'\x85\xebQ\xb8\xde\xc1`@'
tRp2604
sg577
I9223372036854775807
ssI257
g2556
sI162
g1894
sI280
(dp2605
g568
g579
sg570
g571
(g573
S'\x00\x00\x00\x00\x008O@'
tRp2606
sg575
g571
(g573
S'\x1e\x85\xebQ\xb8\x97R@'
tRp2607
sg577
I9223372036854775807
sssI265
(dp2608
I41
g972
sI2
g600
sI427
(dp2609
g568
g579
sg570
g571
(g573
S'\x00\x00\x00\x00\x008/@'
tRp2610
sg575
g571
(g573
S'G\xe1z\x14\xee\xc5Q@'
tRp2611
sg577
I9223372036854775807
sssI266
(dp2612
I272
(dp2613
g568
g593
sg570
g571
(g573
S'\x00\x00\x00\x00\x008?@'
tRp2614
sg575
g571
(g573
S'\x85\xebQ\xb8\xde\xc1`@'
tRp2615
sg577
I9223372036854775807
ssI306
(dp2616
g568
g579
sg570
g571
(g573
S'\x00\x00\x00\x00\x008?@'
tRp2617
sg575
g571
(g573
S'\x90\xc2\xf5(\xdc\x0bR@'
tRp2618
sg577
I9223372036854775807
ssI261
g2584
sI167
g1944
ssI267
(dp2619
I274
(dp2620
g568
g579
sg570
g571
(g573
S'\x00\x00\x00\x00\x008?@'
tRp2621
sg575
g571
(g573
S'\x90\xc2\xf5(\xdc\x0bR@'
tRp2622
sg577
I9223372036854775807
ssI227
g2361
sI309
(dp2623
g568
g579
sg570
g571
(g573
S'\x00\x00\x00\x00\x008?@'
tRp2624
sg575
g571
(g573
S'\x90\xc2\xf5(\xdc\x0bR@'
tRp2625
sg577
I9223372036854775807
sssI268
(dp2626
I357
(dp2627
g568
g593
sg570
g571
(g573
S'\x00\x00\x00\x00\x008O@'
tRp2628
sg575
g571
(g573
S'\n\xd7\xa3p\xbdCa@'
tRp2629
sg577
I9223372036854775807
ssI230
g2382
sI263
g2595
ssI269
(dp2630
I112
g1535
sI505
(dp2631
g568
g593
sg570
g571
(g573
S'\x00\x00\x00\x00\x008/@'
tRp2632
sg575
g571
(g573
S'\xc2\xf5(\\\xef\x80`@'
tRp2633
sg577
I9223372036854775807
ssI495
(dp2634
g568
g593
sg570
g571
(g573
S'\x00\x00\x00\x00\x008/@'
tRp2635
sg575
g571
(g573
S'\xc2\xf5(\\\xef\x80`@'
tRp2636
sg577
I9223372036854775807
sssI270
(dp2637
I320
(dp2638
g568
g569
sg570
g571
(g573
S'\x00\x00\x00\x00\x008\x0f@'
tRp2639
sg575
g571
(g573
S'\x9a\x99\x99\x99\xf9\x18i@'
tRp2640
sg577
I9223372036854775807
ssI394
(dp2641
g568
g579
sg570
g571
(g573
S'\x00\x00\x00\x00\x008\x0f@'
tRp2642
sg575
g571
(g573
S'R\xb8\x1e\x85{\x91Q@'
tRp2643
sg577
I9223372036854775807
ssI482
(dp2644
g568
g569
sg570
g571
(g573
S'\x00\x00\x00\x00\x008\x0f@'
tRp2645
sg575
g571
(g573
S'\x9a\x99\x99\x99\xf9\x18i@'
tRp2646
sg577
I9223372036854775807
ssI14
g720
ssI271
(dp2647
I41
g978
sI28
g851
sI277
(dp2648
g568
g579
sg570
g571
(g573
S'\x00\x00\x00\x00\x008/@'
tRp2649
sg575
g571
(g573
S'G\xe1z\x14\xee\xc5Q@'
tRp2650
sg577
I9223372036854775807
sssI272
(dp2651
I266
g2613
sI283
(dp2652
g568
g593
sg570
g571
(g573
S'\x00\x00\x00\x00\x008?@'
tRp2653
sg575
g571
(g573
S'\x85\xebQ\xb8\xde\xc1`@'
tRp2654
sg577
I9223372036854775807
ssI314
(dp2655
g568
g579
sg570
g571
(g573
S'\x00\x00\x00\x00\x008?@'
tRp2656
sg575
g571
(g573
S'\x90\xc2\xf5(\xdc\x0bR@'
tRp2657
sg577
I9223372036854775807
sssI273
(dp2658
I26
g825
sI284
(dp2659
g568
g579
sg570
g571
(g573
S'\x00\x00\x00\x00\x008?@'
tRp2660
sg575
g571
(g573
S'\x90\xc2\xf5(\xdc\x0bR@'
tRp2661
sg577
I9223372036854775807
ssI234
g2416
ssI274
(dp2662
I267
g2620
sI316
(dp2663
g568
g579
sg570
g571
(g573
S'\x00\x00\x00\x00\x008?@'
tRp2664
sg575
g571
(g573
S'\x90\xc2\xf5(\xdc\x0bR@'
tRp2665
sg577
I9223372036854775807
ssI237
g2437
sI285
(dp2666
g568
g579
sg570
g571
(g573
S'\x00\x00\x00\x00\x008?@'
tRp2667
sg575
g571
(g573
S'\x90\xc2\xf5(\xdc\x0bR@'
tRp2668
sg577
I9223372036854775807
sssI275
(dp2669
I113
g1545
sI278
(dp2670
g568
g579
sg570
g571
(g573
S'\x00\x00\x00\x00\x008\x1f@'
tRp2671
sg575
g571
(g573
S'\xa4p=\n\xf7\xa2Q@'
tRp2672
sg577
I9223372036854775807
ssI423
(dp2673
g568
g579
sg570
g571
(g573
S'\x00\x00\x00\x00\x008\x1f@'
tRp2674
sg575
g571
(g573
S'\xa4p=\n\xf7\xa2Q@'
tRp2675
sg577
I9223372036854775807
sssI276
(dp2676
I286
(dp2677
g568
g579
sg570
g571
(g573
S'\x00\x00\x00\x00\x008?@'
tRp2678
sg575
g571
(g573
S'\x90\xc2\xf5(\xdc\x0bR@'
tRp2679
sg577
I9223372036854775807
ssI317
(dp2680
g568
g593
sg570
g571
(g573
S'\x00\x00\x00\x00\x008?@'
tRp2681
sg575
g571
(g573
S'\x85\xebQ\xb8\xde\xc1`@'
tRp2682
sg577
I9223372036854775807
ssI238
g2444
ssI277
(dp2683
I271
g2648
sI239
g2454
sI149
g1812
sI31
g878
ssI278
(dp2684
I282
(dp2685
g568
g579
sg570
g571
(g573
S'\x00\x00\x00\x00\x008\x1f@'
tRp2686
sg575
g571
(g573
S'\xa4p=\n\xf7\xa2Q@'
tRp2687
sg577
I9223372036854775807
ssI275
g2670
sI116
g1563
sI426
(dp2688
g568
g579
sg570
g571
(g573
S'\x00\x00\x00\x00\x008\x1f@'
tRp2689
sg575
g571
(g573
S'\xa4p=\n\xf7\xa2Q@'
tRp2690
sg577
I9223372036854775807
sssI279
(dp2691
I179
g2028
sI364
(dp2692
g568
g593
sg570
g571
(g573
S'\x00\x00\x00\x00\x008O@'
tRp2693
sg575
g571
(g573
S'\n\xd7\xa3p\xbdCa@'
tRp2694
sg577
I9223372036854775807
ssI295
(dp2695
g568
g579
sg570
g571
(g573
S'\x00\x00\x00\x00\x008O@'
tRp2696
sg575
g571
(g573
S'\x1e\x85\xebQ\xb8\x97R@'
tRp2697
sg577
I9223372036854775807
sssI280
(dp2698
I96
g1402
sI264
g2605
sI365
(dp2699
g568
g579
sg570
g571
(g573
S'\x00\x00\x00\x00\x008O@'
tRp2700
sg575
g571
(g573
S'\x1e\x85\xebQ\xb8\x97R@'
tRp2701
sg577
I9223372036854775807
ssI296
(dp2702
g568
g579
sg570
g571
(g573
S'\x00\x00\x00\x00\x008O@'
tRp2703
sg575
g571
(g573
S'\x1e\x85\xebQ\xb8\x97R@'
tRp2704
sg577
I9223372036854775807
sssI281
(dp2705
I250
g2513
sI310
(dp2706
g568
g593
sg570
g571
(g573
S'\x00\x00\x00\x00\x008_@'
tRp2707
sg575
g571
(g573
S'\x15\xaeG\xe1zGb@'
tRp2708
sg577
I9223372036854775807
ssI463
(dp2709
g568
g579
sg570
g571
(g573
S'\x00\x00\x00\x00\x008_@'
tRp2710
sg575
g571
(g573
S'>\n\xd7\xa3p\xafS@'
tRp2711
sg577
I9223372036854775807
sssI282
(dp2712
I120
g1597
sI430
(dp2713
g568
g579
sg570
g571
(g573
S'\x00\x00\x00\x00\x008\x1f@'
tRp2714
sg575
g571
(g573
S'\xa4p=\n\xf7\xa2Q@'
tRp2715
sg577
I9223372036854775807
ssI278
g2685
ssI283
(dp2716
I184
g2066
sI272
g2652
sI325
(dp2717
g568
g579
sg570
g571
(g573
S'\x00\x00\x00\x00\x008?@'
tRp2718
sg575
g571
(g573
S'\x90\xc2\xf5(\xdc\x0bR@'
tRp2719
sg577
I9223372036854775807
ssI288
(dp2720
g568
g593
sg570
g571
(g573
S'\x00\x00\x00\x00\x008?@'
tRp2721
sg575
g571
(g573
S'\x85\xebQ\xb8\xde\xc1`@'
tRp2722
sg577
I9223372036854775807
sssI284
(dp2723
I368
(dp2724
g568
g579
sg570
g571
(g573
S'\x00\x00\x00\x00\x008O@'
tRp2725
sg575
g571
(g573
S'\x1e\x85\xebQ\xb8\x97R@'
tRp2726
sg577
I9223372036854775807
ssI273
g2659
sI242
g2469
ssI285
(dp2727
I274
g2666
sI244
g2480
sI327
(dp2728
g568
g569
sg570
g571
(g573
S'\x00\x00\x00\x00\x008?@'
tRp2729
sg575
g571
(g573
S'\xcd\xcc\xcc\xcc\xcc\xc7i@'
tRp2730
sg577
I9223372036854775807
sssI286
(dp2731
I276
g2677
sI245
g2487
sI38
g951
sI287
(dp2732
g568
g579
sg570
g571
(g573
S'\x00\x00\x00\x00\x008/@'
tRp2733
sg575
g571
(g573
S'G\xe1z\x14\xee\xc5Q@'
tRp2734
sg577
I9223372036854775807
sssI287
(dp2735
I440
(dp2736
g568
g579
sg570
g571
(g573
S'\x00\x00\x00\x00\x008\x1f@'
tRp2737
sg575
g571
(g573
S'\xa4p=\n\xf7\xa2Q@'
tRp2738
sg577
I9223372036854775807
ssI290
(dp2739
g568
g579
sg570
g571
(g573
S'\x00\x00\x00\x00\x008\x1f@'
tRp2740
sg575
g571
(g573
S'\xa4p=\n\xf7\xa2Q@'
tRp2741
sg577
I9223372036854775807
ssI286
g2732
ssI288
(dp2742
I40
g962
sI283
g2720
sI294
(dp2743
g568
g593
sg570
g571
(g573
S'\x00\x00\x00\x00\x008/@'
tRp2744
sg575
g571
(g573
S'\xc2\xf5(\\\xef\x80`@'
tRp2745
sg577
I9223372036854775807
sssI289
(dp2746
I249
g2506
sI221
g2322
sI335
(dp2747
g568
g579
sg570
g571
(g573
S'\x00\x00\x00\x00\x008?@'
tRp2748
sg575
g571
(g573
S'\x90\xc2\xf5(\xdc\x0bR@'
tRp2749
sg577
I9223372036854775807
sssI290
(dp2750
I105
g1477
sI442
(dp2751
g568
g579
sg570
g571
(g573
S'\x00\x00\x00\x00\x008\x1f@'
tRp2752
sg575
g571
(g573
S'\xa4p=\n\xf7\xa2Q@'
tRp2753
sg577
I9223372036854775807
ssI287
g2739
ssI291
(dp2754
I216
g2281
sI478
(dp2755
g568
g579
sg570
g571
(g573
S'\x00\x00\x00\x00\x008/@'
tRp2756
sg575
g571
(g573
S'G\xe1z\x14\xee\xc5Q@'
tRp2757
sg577
I9223372036854775807
ssI230
g2379
ssI292
(dp2758
I305
(dp2759
g568
g569
sg570
g571
(g573
S'\x00\x00\x00\x00\x008O@'
tRp2760
sg575
g571
(g573
S'\x99\x99\x99\x99\x99\x8fj@'
tRp2761
sg577
I9223372036854775807
ssI195
g2140
sI164
g1911
ssI293
(dp2762
I339
(dp2763
g568
g579
sg570
g571
(g573
S'\x00\x00\x00\x00\x008?@'
tRp2764
sg575
g571
(g573
S'\x90\xc2\xf5(\xdc\x0bR@'
tRp2765
sg577
I9223372036854775807
ssI252
g2527
sI149
g1818
ssI294
(dp2766
I288
g2743
sI300
(dp2767
g568
g593
sg570
g571
(g573
S'\x00\x00\x00\x00\x008/@'
tRp2768
sg575
g571
(g573
S'\xc2\xf5(\\\xef\x80`@'
tRp2769
sg577
I9223372036854775807
ssI46
g1019
ssI295
(dp2770
I380
(dp2771
g568
g579
sg570
g571
(g573
S'\x00\x00\x00\x00\x008O@'
tRp2772
sg575
g571
(g573
S'\x1e\x85\xebQ\xb8\x97R@'
tRp2773
sg577
I9223372036854775807
ssI279
g2695
sI308
(dp2774
g568
g579
sg570
g571
(g573
S'\x00\x00\x00\x00\x008O@'
tRp2775
sg575
g571
(g573
S'\x1e\x85\xebQ\xb8\x97R@'
tRp2776
sg577
I9223372036854775807
ssI199
g2165
ssI296
(dp2777
I200
g2169
sI280
g2702
sI341
(dp2778
g568
g579
sg570
g571
(g573
S'\x00\x00\x00\x00\x008?@'
tRp2779
sg575
g571
(g573
S'\x90\xc2\xf5(\xdc\x0bR@'
tRp2780
sg577
I9223372036854775807
ssI302
(dp2781
g568
g579
sg570
g571
(g573
S'\x00\x00\x00\x00\x008?@'
tRp2782
sg575
g571
(g573
S'\x90\xc2\xf5(\xdc\x0bR@'
tRp2783
sg577
I9223372036854775807
sssI297
(dp2784
I136
g1715
sI105
g1474
sI212
g2256
ssI298
(dp2785
I210
g2242
sI347
(dp2786
g568
g579
sg570
g571
(g573
S'\x00\x00\x00\x00\x008?@'
tRp2787
sg575
g571
(g573
S'\x90\xc2\xf5(\xdc\x0bR@'
tRp2788
sg577
I9223372036854775807
ssI165
g1918
ssI299
(dp2789
I440
(dp2790
g568
g579
sg570
g571
(g573
S'\x00\x00\x00\x00\x008\x1f@'
tRp2791
sg575
g571
(g573
S'\xa4p=\n\xf7\xa2Q@'
tRp2792
sg577
I9223372036854775807
ssI43
g992
sI334
(dp2793
g568
g579
sg570
g571
(g573
S'\x00\x00\x00\x00\x008/@'
tRp2794
sg575
g571
(g573
S'G\xe1z\x14\xee\xc5Q@'
tRp2795
sg577
I9223372036854775807
ssI38
g948
ssI300
(dp2796
I312
(dp2797
g568
g593
sg570
g571
(g573
S'\x00\x00\x00\x00\x008O@'
tRp2798
sg575
g571
(g573
S'\n\xd7\xa3p\xbdCa@'
tRp2799
sg577
I9223372036854775807
ssI50
g1047
sI204
g2206
sI294
g2767
ssI301
(dp2800
I307
(dp2801
g568
g593
sg570
g571
(g573
S'\x00\x00\x00\x00\x008?@'
tRp2802
sg575
g571
(g573
S'\x85\xebQ\xb8\xde\xc1`@'
tRp2803
sg577
I9223372036854775807
ssI124
g1625
sI262
g2591
ssI302
(dp2804
I296
g2781
sI309
(dp2805
g568
g579
sg570
g571
(g573
S'\x00\x00\x00\x00\x008?@'
tRp2806
sg575
g571
(g573
S'\x90\xc2\xf5(\xdc\x0bR@'
tRp2807
sg577
I9223372036854775807
ssI349
(dp2808
g568
g579
sg570
g571
(g573
S'\x00\x00\x00\x00\x008?@'
tRp2809
sg575
g571
(g573
S'\x90\xc2\xf5(\xdc\x0bR@'
tRp2810
sg577
I9223372036854775807
sssI303
(dp2811
I2
g606
sI350
(dp2812
g568
g593
sg570
g571
(g573
S'\x00\x00\x00\x00\x008?@'
tRp2813
sg575
g571
(g573
S'\x85\xebQ\xb8\xde\xc1`@'
tRp2814
sg577
I9223372036854775807
ssI311
(dp2815
g568
g579
sg570
g571
(g573
S'\x00\x00\x00\x00\x008?@'
tRp2816
sg575
g571
(g573
S'\x90\xc2\xf5(\xdc\x0bR@'
tRp2817
sg577
I9223372036854775807
sssI304
(dp2818
I264
g2602
sI221
g2313
sI351
(dp2819
g568
g593
sg570
g571
(g573
S'\x00\x00\x00\x00\x008?@'
tRp2820
sg575
g571
(g573
S'\x85\xebQ\xb8\xde\xc1`@'
tRp2821
sg577
I9223372036854775807
sssI305
(dp2822
I292
g2759
sI396
(dp2823
g568
g569
sg570
g571
(g573
S'\x00\x00\x00\x00\x008O@'
tRp2824
sg575
g571
(g573
S'\x99\x99\x99\x99\x99\x8fj@'
tRp2825
sg577
I9223372036854775807
ssI323
(dp2826
g568
g579
sg570
g571
(g573
S'\x00\x00\x00\x00\x008O@'
tRp2827
sg575
g571
(g573
S'\x1e\x85\xebQ\xb8\x97R@'
tRp2828
sg577
I9223372036854775807
ssI220
g2309
ssI306
(dp2829
I355
(dp2830
g568
g579
sg570
g571
(g573
S'\x00\x00\x00\x00\x008?@'
tRp2831
sg575
g571
(g573
S'\x90\xc2\xf5(\xdc\x0bR@'
tRp2832
sg577
I9223372036854775807
ssI266
g2616
sI243
g2476
sI314
(dp2833
g568
g579
sg570
g571
(g573
S'\x00\x00\x00\x00\x008?@'
tRp2834
sg575
g571
(g573
S'\x90\xc2\xf5(\xdc\x0bR@'
tRp2835
sg577
I9223372036854775807
sssI307
(dp2836
I315
(dp2837
g568
g593
sg570
g571
(g573
S'\x00\x00\x00\x00\x008?@'
tRp2838
sg575
g571
(g573
S'\x85\xebQ\xb8\xde\xc1`@'
tRp2839
sg577
I9223372036854775807
ssI165
g1921
sI301
g2801
ssI308
(dp2840
I400
(dp2841
g568
g579
sg570
g571
(g573
S'\x00\x00\x00\x00\x008O@'
tRp2842
sg575
g571
(g573
S'\x1e\x85\xebQ\xb8\x97R@'
tRp2843
sg577
I9223372036854775807
ssI226
g2357
sI395
(dp2844
g568
g579
sg570
g571
(g573
S'\x00\x00\x00\x00\x008O@'
tRp2845
sg575
g571
(g573
S'\x1e\x85\xebQ\xb8\x97R@'
tRp2846
sg577
I9223372036854775807
ssI295
g2774
ssI309
(dp2847
I316
(dp2848
g568
g579
sg570
g571
(g573
S'\x00\x00\x00\x00\x008?@'
tRp2849
sg575
g571
(g573
S'\x90\xc2\xf5(\xdc\x0bR@'
tRp2850
sg577
I9223372036854775807
ssI267
g2623
sI356
(dp2851
g568
g579
sg570
g571
(g573
S'\x00\x00\x00\x00\x008?@'
tRp2852
sg575
g571
(g573
S'\x90\xc2\xf5(\xdc\x0bR@'
tRp2853
sg577
I9223372036854775807
ssI302
g2805
ssI310
(dp2854
I328
(dp2855
g568
g593
sg570
g571
(g573
S'\x00\x00\x00\x00\x008O@'
tRp2856
sg575
g571
(g573
S'\n\xd7\xa3p\xbdCa@'
tRp2857
sg577
I9223372036854775807
ssI281
g2706
sI402
(dp2858
g568
g593
sg570
g571
(g573
S'\x00\x00\x00\x00\x008O@'
tRp2859
sg575
g571
(g573
S'\n\xd7\xa3p\xbdCa@'
tRp2860
sg577
I9223372036854775807
sssI311
(dp2861
I25
g821
sI35
g921
sI313
(dp2862
g568
g579
sg570
g571
(g573
S'\x00\x00\x00\x00\x008/@'
tRp2863
sg575
g571
(g573
S'G\xe1z\x14\xee\xc5Q@'
tRp2864
sg577
I9223372036854775807
ssI303
g2815
ssI312
(dp2865
I232
g2402
sI332
(dp2866
g568
g593
sg570
g571
(g573
S'\x00\x00\x00\x00\x008O@'
tRp2867
sg575
g571
(g573
S'\n\xd7\xa3p\xbdCa@'
tRp2868
sg577
I9223372036854775807
ssI300
g2797
sI407
(dp2869
g568
g579
sg570
g571
(g573
S'\x00\x00\x00\x00\x008O@'
tRp2870
sg575
g571
(g573
S'\x1e\x85\xebQ\xb8\x97R@'
tRp2871
sg577
I9223372036854775807
sssI313
(dp2872
I28
g848
sI318
(dp2873
g568
g579
sg570
g571
(g573
S'\x00\x00\x00\x00\x008/@'
tRp2874
sg575
g571
(g573
S'G\xe1z\x14\xee\xc5Q@'
tRp2875
sg577
I9223372036854775807
ssI311
g2862
ssI314
(dp2876
I272
g2655
sI65
g1173
sI306
g2833
sI319
(dp2877
g568
g579
sg570
g571
(g573
S'\x00\x00\x00\x00\x008/@'
tRp2878
sg575
g571
(g573
S'G\xe1z\x14\xee\xc5Q@'
tRp2879
sg577
I9223372036854775807
sssI315
(dp2880
I322
(dp2881
g568
g579
sg570
g571
(g573
S'\x00\x00\x00\x00\x008_@'
tRp2882
sg575
g571
(g573
S'>\n\xd7\xa3p\xafS@'
tRp2883
sg577
I9223372036854775807
ssI307
g2837
sI422
(dp2884
g568
g579
sg570
g571
(g573
S'\x00\x00\x00\x00\x008?@'
tRp2885
sg575
g571
(g573
S'\x90\xc2\xf5(\xdc\x0bR@'
tRp2886
sg577
I9223372036854775807
ssI335
(dp2887
g568
g593
sg570
g571
(g573
S'\x00\x00\x00\x00\x008O@'
tRp2888
sg575
g571
(g573
S'\n\xd7\xa3p\xbdCa@'
tRp2889
sg577
I9223372036854775807
sssI316
(dp2890
I274
g2663
sI309
g2848
sI327
(dp2891
g568
g579
sg570
g571
(g573
S'\x00\x00\x00\x00\x008?@'
tRp2892
sg575
g571
(g573
S'\x90\xc2\xf5(\xdc\x0bR@'
tRp2893
sg577
I9223372036854775807
sssI317
(dp2894
I361
(dp2895
g568
g593
sg570
g571
(g573
S'\x00\x00\x00\x00\x008?@'
tRp2896
sg575
g571
(g573
S'\x85\xebQ\xb8\xde\xc1`@'
tRp2897
sg577
I9223372036854775807
ssI330
(dp2898
g568
g579
sg570
g571
(g573
S'\x00\x00\x00\x00\x008?@'
tRp2899
sg575
g571
(g573
S'\x90\xc2\xf5(\xdc\x0bR@'
tRp2900
sg577
I9223372036854775807
ssI276
g2680
ssI318
(dp2901
I313
g2873
sI362
(dp2902
g568
g579
sg570
g571
(g573
S'\x00\x00\x00\x00\x008?@'
tRp2903
sg575
g571
(g573
S'\x90\xc2\xf5(\xdc\x0bR@'
tRp2904
sg577
I9223372036854775807
ssI331
(dp2905
g568
g579
sg570
g571
(g573
S'\x00\x00\x00\x00\x008?@'
tRp2906
sg575
g571
(g573
S'\x90\xc2\xf5(\xdc\x0bR@'
tRp2907
sg577
I9223372036854775807
ssI31
g881
ssI319
(dp2908
I314
g2877
sI37
g941
sI325
(dp2909
g568
g579
sg570
g571
(g573
S'\x00\x00\x00\x00\x008/@'
tRp2910
sg575
g571
(g573
S'G\xe1z\x14\xee\xc5Q@'
tRp2911
sg577
I9223372036854775807
sssI320
(dp2912
I253
g2531
sI270
g2638
sI375
(dp2913
g568
g579
sg570
g571
(g573
S'\x00\x00\x00\x00\x008\x0f@'
tRp2914
sg575
g571
(g573
S'R\xb8\x1e\x85{\x91Q@'
tRp2915
sg577
I9223372036854775807
sssI321
(dp2916
I168
g1948
sI483
(dp2917
g568
g579
sg570
g571
(g573
S'\x00\x00\x00\x00\x008\x1f@'
tRp2918
sg575
g571
(g573
S'\xa4p=\n\xf7\xa2Q@'
tRp2919
sg577
I9223372036854775807
ssI326
(dp2920
g568
g579
sg570
g571
(g573
S'\x00\x00\x00\x00\x008\x1f@'
tRp2921
sg575
g571
(g573
S'\xa4p=\n\xf7\xa2Q@'
tRp2922
sg577
I9223372036854775807
sssI322
(dp2923
I547
(dp2924
g568
g579
sg570
g571
(g573
S'\x00\x00\x00\x00\x008_@'
tRp2925
sg575
g571
(g573
S'>\n\xd7\xa3p\xafS@'
tRp2926
sg577
I9223372036854775807
ssI315
g2881
sI110
g1518
sI119
g1584
ssI323
(dp2927
I241
g2465
sI333
(dp2928
g568
g579
sg570
g571
(g573
S'\x00\x00\x00\x00\x008?@'
tRp2929
sg575
g571
(g573
S'\x90\xc2\xf5(\xdc\x0bR@'
tRp2930
sg577
I9223372036854775807
ssI366
(dp2931
g568
g579
sg570
g571
(g573
S'\x00\x00\x00\x00\x008?@'
tRp2932
sg575
g571
(g573
S'\x90\xc2\xf5(\xdc\x0bR@'
tRp2933
sg577
I9223372036854775807
ssI305
g2826
ssI324
(dp2934
I256
g2552
sI399
(dp2935
g568
g579
sg570
g571
(g573
S'\x00\x00\x00\x00\x008\x0f@'
tRp2936
sg575
g571
(g573
S'R\xb8\x1e\x85{\x91Q@'
tRp2937
sg577
I9223372036854775807
ssI375
(dp2938
g568
g579
sg570
g571
(g573
S'\x00\x00\x00\x00\x008\x0f@'
tRp2939
sg575
g571
(g573
S'R\xb8\x1e\x85{\x91Q@'
tRp2940
sg577
I9223372036854775807
sssI325
(dp2941
I319
g2909
sI283
g2717
sI358
(dp2942
g568
g579
sg570
g571
(g573
S'\x00\x00\x00\x00\x008?@'
tRp2943
sg575
g571
(g573
S'\x90\xc2\xf5(\xdc\x0bR@'
tRp2944
sg577
I9223372036854775807
ssI71
g1227
ssI326
(dp2945
I321
g2920
sI171
g1969
sI329
(dp2946
g568
g579
sg570
g571
(g573
S'\x00\x00\x00\x00\x008\x1f@'
tRp2947
sg575
g571
(g573
S'\xa4p=\n\xf7\xa2Q@'
tRp2948
sg577
I9223372036854775807
ssI175
g2003
ssI327
(dp2949
I418
(dp2950
g568
g569
sg570
g571
(g573
S'\x00\x00\x00\x00\x008O@'
tRp2951
sg575
g571
(g573
S'\x99\x99\x99\x99\x99\x8fj@'
tRp2952
sg577
I9223372036854775807
ssI316
g2891
sI285
g2728
ssI328
(dp2953
I336
(dp2954
g568
g593
sg570
g571
(g573
S'\x00\x00\x00\x00\x008?@'
tRp2955
sg575
g571
(g573
S'\x85\xebQ\xb8\xde\xc1`@'
tRp2956
sg577
I9223372036854775807
ssI370
(dp2957
g568
g579
sg570
g571
(g573
S'\x00\x00\x00\x00\x008?@'
tRp2958
sg575
g571
(g573
S'\x90\xc2\xf5(\xdc\x0bR@'
tRp2959
sg577
I9223372036854775807
ssI310
g2855
ssI329
(dp2960
I490
(dp2961
g568
g579
sg570
g571
(g573
S'\x00\x00\x00\x00\x008\x1f@'
tRp2962
sg575
g571
(g573
S'\xa4p=\n\xf7\xa2Q@'
tRp2963
sg577
I9223372036854775807
ssI173
g1980
sI326
g2946
ssI330
(dp2964
I371
(dp2965
g568
g579
sg570
g571
(g573
S'\x00\x00\x00\x00\x008?@'
tRp2966
sg575
g571
(g573
S'\x90\xc2\xf5(\xdc\x0bR@'
tRp2967
sg577
I9223372036854775807
ssI334
(dp2968
g568
g579
sg570
g571
(g573
S'\x00\x00\x00\x00\x008/@'
tRp2969
sg575
g571
(g573
S'G\xe1z\x14\xee\xc5Q@'
tRp2970
sg577
I9223372036854775807
ssI317
g2898
sI38
g945
ssI331
(dp2971
I339
(dp2972
g568
g579
sg570
g571
(g573
S'\x00\x00\x00\x00\x008?@'
tRp2973
sg575
g571
(g573
S'\x90\xc2\xf5(\xdc\x0bR@'
tRp2974
sg577
I9223372036854775807
ssI149
g1809
sI318
g2905
ssI332
(dp2975
I312
g2866
sI100
g1436
sI421
(dp2976
g568
g579
sg570
g571
(g573
S'\x00\x00\x00\x00\x008O@'
tRp2977
sg575
g571
(g573
S'\x1e\x85\xebQ\xb8\x97R@'
tRp2978
sg577
I9223372036854775807
ssI247
g2495
ssI333
(dp2979
I337
(dp2980
g568
g579
sg570
g571
(g573
S'\x00\x00\x00\x00\x008/@'
tRp2981
sg575
g571
(g573
S'G\xe1z\x14\xee\xc5Q@'
tRp2982
sg577
I9223372036854775807
ssI323
g2928
sI78
g1276
ssI334
(dp2983
I330
g2968
sI299
g2793
sI338
(dp2984
g568
g579
sg570
g571
(g573
S'\x00\x00\x00\x00\x008/@'
tRp2985
sg575
g571
(g573
S'G\xe1z\x14\xee\xc5Q@'
tRp2986
sg577
I9223372036854775807
sssI335
(dp2987
I344
(dp2988
g568
g593
sg570
g571
(g573
S'\x00\x00\x00\x00\x008?@'
tRp2989
sg575
g571
(g573
S'\x85\xebQ\xb8\xde\xc1`@'
tRp2990
sg577
I9223372036854775807
ssI289
g2747
sI315
g2887
ssI336
(dp2991
I328
g2954
sI376
(dp2992
g568
g579
sg570
g571
(g573
S'\x00\x00\x00\x00\x008?@'
tRp2993
sg575
g571
(g573
S'\x90\xc2\xf5(\xdc\x0bR@'
tRp2994
sg577
I9223372036854775807
ssI346
(dp2995
g568
g593
sg570
g571
(g573
S'\x00\x00\x00\x00\x008?@'
tRp2996
sg575
g571
(g573
S'\x85\xebQ\xb8\xde\xc1`@'
tRp2997
sg577
I9223372036854775807
sssI337
(dp2998
I83
g1311
sI333
g2980
sI342
(dp2999
g568
g579
sg570
g571
(g573
S'\x00\x00\x00\x00\x008/@'
tRp3000
sg575
g571
(g573
S'G\xe1z\x14\xee\xc5Q@'
tRp3001
sg577
I9223372036854775807
sssI338
(dp3002
I378
(dp3003
g568
g579
sg570
g571
(g573
S'\x00\x00\x00\x00\x008?@'
tRp3004
sg575
g571
(g573
S'\x90\xc2\xf5(\xdc\x0bR@'
tRp3005
sg577
I9223372036854775807
ssI348
(dp3006
g568
g579
sg570
g571
(g573
S'\x00\x00\x00\x00\x008?@'
tRp3007
sg575
g571
(g573
S'\x90\xc2\xf5(\xdc\x0bR@'
tRp3008
sg577
I9223372036854775807
ssI45
g1006
sI334
g2984
ssI339
(dp3009
I432
(dp3010
g568
g579
sg570
g571
(g573
S'\x00\x00\x00\x00\x008O@'
tRp3011
sg575
g571
(g573
S'\x1e\x85\xebQ\xb8\x97R@'
tRp3012
sg577
I9223372036854775807
ssI331
g2972
sI21
g781
sI293
g2763
ssI340
(dp3013
I358
(dp3014
g568
g579
sg570
g571
(g573
S'\x00\x00\x00\x00\x008/@'
tRp3015
sg575
g571
(g573
S'G\xe1z\x14\xee\xc5Q@'
tRp3016
sg577
I9223372036854775807
ssI85
g1331
sI46
g1016
sI343
(dp3017
g568
g579
sg570
g571
(g573
S'\x00\x00\x00\x00\x008/@'
tRp3018
sg575
g571
(g573
S'G\xe1z\x14\xee\xc5Q@'
tRp3019
sg577
I9223372036854775807
sssI341
(dp3020
I296
g2778
sI349
(dp3021
g568
g579
sg570
g571
(g573
S'\x00\x00\x00\x00\x008?@'
tRp3022
sg575
g571
(g573
S'\x90\xc2\xf5(\xdc\x0bR@'
tRp3023
sg577
I9223372036854775807
ssI381
(dp3024
g568
g579
sg570
g571
(g573
S'\x00\x00\x00\x00\x008?@'
tRp3025
sg575
g571
(g573
S'\x90\xc2\xf5(\xdc\x0bR@'
tRp3026
sg577
I9223372036854775807
sssI342
(dp3027
I544
(dp3028
g568
g579
sg570
g571
(g573
S'\x00\x00\x00\x00\x008?@'
tRp3029
sg575
g571
(g573
S'\x90\xc2\xf5(\xdc\x0bR@'
tRp3030
sg577
I9223372036854775807
ssI337
g2999
sI498
(dp3031
g568
g579
sg570
g571
(g573
S'\x00\x00\x00\x00\x008O@'
tRp3032
sg575
g571
(g573
S'\x1e\x85\xebQ\xb8\x97R@'
tRp3033
sg577
I9223372036854775807
ssI86
g1335
ssI343
(dp3034
I88
g1349
sI50
g1050
sI340
g3017
ssI344
(dp3035
I351
(dp3036
g568
g593
sg570
g571
(g573
S'\x00\x00\x00\x00\x008?@'
tRp3037
sg575
g571
(g573
S'\x85\xebQ\xb8\xde\xc1`@'
tRp3038
sg577
I9223372036854775807
ssI221
g2319
sI335
g2988
ssI345
(dp3039
I154
g1844
sI435
(dp3040
g568
g593
sg570
g571
(g573
S'\x00\x00\x00\x00\x008O@'
tRp3041
sg575
g571
(g573
S'\n\xd7\xa3p\xbdCa@'
tRp3042
sg577
I9223372036854775807
ssI395
(dp3043
g568
g579
sg570
g571
(g573
S'\x00\x00\x00\x00\x008O@'
tRp3044
sg575
g571
(g573
S'\x1e\x85\xebQ\xb8\x97R@'
tRp3045
sg577
I9223372036854775807
sssI346
(dp3046
I336
g2995
sI385
(dp3047
g568
g569
sg570
g571
(g573
S'\x00\x00\x00\x00\x008?@'
tRp3048
sg575
g571
(g573
S'\xcd\xcc\xcc\xcc\xcc\xc7i@'
tRp3049
sg577
I9223372036854775807
ssI373
(dp3050
g568
g569
sg570
g571
(g573
S'\x00\x00\x00\x00\x008_@'
tRp3051
sg575
g571
(g573
S'43333\x1fl@'
tRp3052
sg577
I9223372036854775807
sssI347
(dp3053
I249
g2503
sI298
g2786
sI123
g1615
sI422
(dp3054
g568
g579
sg570
g571
(g573
S'\x00\x00\x00\x00\x008?@'
tRp3055
sg575
g571
(g573
S'\x90\xc2\xf5(\xdc\x0bR@'
tRp3056
sg577
I9223372036854775807
sssI348
(dp3057
I355
(dp3058
g568
g569
sg570
g571
(g573
S'\x00\x00\x00\x00\x008?@'
tRp3059
sg575
g571
(g573
S'\xcd\xcc\xcc\xcc\xcc\xc7i@'
tRp3060
sg577
I9223372036854775807
ssI338
g3006
sI243
g2473
sI386
(dp3061
g568
g579
sg570
g571
(g573
S'\x00\x00\x00\x00\x008?@'
tRp3062
sg575
g571
(g573
S'\x90\xc2\xf5(\xdc\x0bR@'
tRp3063
sg577
I9223372036854775807
sssI349
(dp3064
I356
(dp3065
g568
g579
sg570
g571
(g573
S'\x00\x00\x00\x00\x008?@'
tRp3066
sg575
g571
(g573
S'\x90\xc2\xf5(\xdc\x0bR@'
tRp3067
sg577
I9223372036854775807
ssI341
g3021
sI302
g2808
sI389
(dp3068
g568
g579
sg570
g571
(g573
S'\x00\x00\x00\x00\x008?@'
tRp3069
sg575
g571
(g573
S'\x90\xc2\xf5(\xdc\x0bR@'
tRp3070
sg577
I9223372036854775807
sssI350
(dp3071
I35
g918
sI391
(dp3072
g568
g593
sg570
g571
(g573
S'\x00\x00\x00\x00\x008?@'
tRp3073
sg575
g571
(g573
S'\x85\xebQ\xb8\xde\xc1`@'
tRp3074
sg577
I9223372036854775807
ssI303
g2812
ssI351
(dp3075
I304
g2819
sI344
g3036
sI547
(dp3076
g568
g593
sg570
g571
(g573
S'\x00\x00\x00\x00\x008_@'
tRp3077
sg575
g571
(g573
S'\x15\xaeG\xe1zGb@'
tRp3078
sg577
I9223372036854775807
ssI365
(dp3079
g568
g593
sg570
g571
(g573
S'\x00\x00\x00\x00\x008O@'
tRp3080
sg575
g571
(g573
S'\n\xd7\xa3p\xbdCa@'
tRp3081
sg577
I9223372036854775807
sssI352
(dp3082
I258
g2560
sI354
(dp3083
g568
g579
sg570
g571
(g573
S'\x00\x00\x00\x00\x008\x1f@'
tRp3084
sg575
g571
(g573
S'\xa4p=\n\xf7\xa2Q@'
tRp3085
sg577
I9223372036854775807
ssI198
g2155
sI511
(dp3086
g568
g579
sg570
g571
(g573
S'\x00\x00\x00\x00\x008\x1f@'
tRp3087
sg575
g571
(g573
S'\xa4p=\n\xf7\xa2Q@'
tRp3088
sg577
I9223372036854775807
sssI353
(dp3089
I409
(dp3090
g568
g579
sg570
g571
(g573
S'\x00\x00\x00\x00\x008/@'
tRp3091
sg575
g571
(g573
S'G\xe1z\x14\xee\xc5Q@'
tRp3092
sg577
I9223372036854775807
ssI151
g1826
sI415
(dp3093
g568
g579
sg570
g571
(g573
S'\x00\x00\x00\x00\x008/@'
tRp3094
sg575
g571
(g573
S'G\xe1z\x14\xee\xc5Q@'
tRp3095
sg577
I9223372036854775807
ssI103
g1457
ssI354
(dp3096
I352
g3083
sI202
g2186
sI514
(dp3097
g568
g579
sg570
g571
(g573
S'\x00\x00\x00\x00\x008\x1f@'
tRp3098
sg575
g571
(g573
S'\xa4p=\n\xf7\xa2Q@'
tRp3099
sg577
I9223372036854775807
sssI355
(dp3100
I306
g2830
sI348
g3058
sI398
(dp3101
g568
g569
sg570
g571
(g573
S'\x00\x00\x00\x00\x008?@'
tRp3102
sg575
g571
(g573
S'\xcd\xcc\xcc\xcc\xcc\xc7i@'
tRp3103
sg577
I9223372036854775807
ssI359
(dp3104
g568
g579
sg570
g571
(g573
S'\x00\x00\x00\x00\x008?@'
tRp3105
sg575
g571
(g573
S'\x90\xc2\xf5(\xdc\x0bR@'
tRp3106
sg577
I9223372036854775807
sssI356
(dp3107
I401
(dp3108
g568
g579
sg570
g571
(g573
S'\x00\x00\x00\x00\x008?@'
tRp3109
sg575
g571
(g573
S'\x90\xc2\xf5(\xdc\x0bR@'
tRp3110
sg577
I9223372036854775807
ssI309
g2851
sI349
g3065
ssI357
(dp3111
I544
(dp3112
g568
g579
sg570
g571
(g573
S'\x00\x00\x00\x00\x008?@'
tRp3113
sg575
g571
(g573
S'\x90\xc2\xf5(\xdc\x0bR@'
tRp3114
sg577
I9223372036854775807
ssI387
(dp3115
g568
g579
sg570
g571
(g573
S'\x00\x00\x00\x00\x008_@'
tRp3116
sg575
g571
(g573
S'>\n\xd7\xa3p\xafS@'
tRp3117
sg577
I9223372036854775807
ssI268
g2627
sI405
(dp3118
g568
g593
sg570
g571
(g573
S'\x00\x00\x00\x00\x008?@'
tRp3119
sg575
g571
(g573
S'\x85\xebQ\xb8\xde\xc1`@'
tRp3120
sg577
I9223372036854775807
sssI358
(dp3121
I40
g968
sI340
g3014
sI325
g2942
sI79
g1283
ssI359
(dp3122
I363
(dp3123
g568
g579
sg570
g571
(g573
S'\x00\x00\x00\x00\x008/@'
tRp3124
sg575
g571
(g573
S'G\xe1z\x14\xee\xc5Q@'
tRp3125
sg577
I9223372036854775807
ssI65
g1176
sI355
g3104
sI189
g2101
ssI360
(dp3126
I176
g2007
sI457
(dp3127
g568
g579
sg570
g571
(g573
S'\x00\x00\x00\x00\x008O@'
tRp3128
sg575
g571
(g573
S'\x1e\x85\xebQ\xb8\x97R@'
tRp3129
sg577
I9223372036854775807
ssI100
g1430
ssI361
(dp3130
I371
(dp3131
g568
g579
sg570
g571
(g573
S'\x00\x00\x00\x00\x008?@'
tRp3132
sg575
g571
(g573
S'\x90\xc2\xf5(\xdc\x0bR@'
tRp3133
sg577
I9223372036854775807
ssI411
(dp3134
g568
g593
sg570
g571
(g573
S'\x00\x00\x00\x00\x008?@'
tRp3135
sg575
g571
(g573
S'\x85\xebQ\xb8\xde\xc1`@'
tRp3136
sg577
I9223372036854775807
ssI317
g2895
ssI362
(dp3137
I35
g912
sI412
(dp3138
g568
g579
sg570
g571
(g573
S'\x00\x00\x00\x00\x008?@'
tRp3139
sg575
g571
(g573
S'\x90\xc2\xf5(\xdc\x0bR@'
tRp3140
sg577
I9223372036854775807
ssI318
g2902
ssI363
(dp3141
I104
g1461
sI367
(dp3142
g568
g579
sg570
g571
(g573
S'\x00\x00\x00\x00\x008/@'
tRp3143
sg575
g571
(g573
S'G\xe1z\x14\xee\xc5Q@'
tRp3144
sg577
I9223372036854775807
ssI37
g938
sI359
g3123
ssI364
(dp3145
I380
(dp3146
g568
g579
sg570
g571
(g573
S'\x00\x00\x00\x00\x008O@'
tRp3147
sg575
g571
(g573
S'\x1e\x85\xebQ\xb8\x97R@'
tRp3148
sg577
I9223372036854775807
ssI462
(dp3149
g568
g593
sg570
g571
(g573
S'\x00\x00\x00\x00\x008O@'
tRp3150
sg575
g571
(g573
S'\n\xd7\xa3p\xbdCa@'
tRp3151
sg577
I9223372036854775807
ssI279
g2692
ssI365
(dp3152
I280
g2699
sI381
(dp3153
g568
g593
sg570
g571
(g573
S'\x00\x00\x00\x00\x008O@'
tRp3154
sg575
g571
(g573
S'\n\xd7\xa3p\xbdCa@'
tRp3155
sg577
I9223372036854775807
ssI351
g3079
ssI366
(dp3156
I323
g2931
sI372
(dp3157
g568
g579
sg570
g571
(g573
S'\x00\x00\x00\x00\x008?@'
tRp3158
sg575
g571
(g573
S'\x90\xc2\xf5(\xdc\x0bR@'
tRp3159
sg577
I9223372036854775807
ssI414
(dp3160
g568
g579
sg570
g571
(g573
S'\x00\x00\x00\x00\x008?@'
tRp3161
sg575
g571
(g573
S'\x90\xc2\xf5(\xdc\x0bR@'
tRp3162
sg577
I9223372036854775807
sssI367
(dp3163
I363
g3142
sI108
g1504
sI374
(dp3164
g568
g579
sg570
g571
(g573
S'\x00\x00\x00\x00\x008?@'
tRp3165
sg575
g571
(g573
S'\x90\xc2\xf5(\xdc\x0bR@'
tRp3166
sg577
I9223372036854775807
ssI71
g1224
ssI368
(dp3167
I17
g747
sI284
g2724
sI21
g775
ssI369
(dp3168
I178
g2021
sI141
g1750
sI111
g1522
ssI370
(dp3169
I328
g2957
sI376
(dp3170
g568
g579
sg570
g571
(g573
S'\x00\x00\x00\x00\x008?@'
tRp3171
sg575
g571
(g573
S'\x90\xc2\xf5(\xdc\x0bR@'
tRp3172
sg577
I9223372036854775807
ssI388
(dp3173
g568
g579
sg570
g571
(g573
S'\x00\x00\x00\x00\x008?@'
tRp3174
sg575
g571
(g573
S'\x90\xc2\xf5(\xdc\x0bR@'
tRp3175
sg577
I9223372036854775807
sssI371
(dp3176
I361
g3131
sI330
g2965
sI419
(dp3177
g568
g579
sg570
g571
(g573
S'\x00\x00\x00\x00\x008?@'
tRp3178
sg575
g571
(g573
S'\x90\xc2\xf5(\xdc\x0bR@'
tRp3179
sg577
I9223372036854775807
ssI378
(dp3180
g568
g579
sg570
g571
(g573
S'\x00\x00\x00\x00\x008?@'
tRp3181
sg575
g571
(g573
S'\x90\xc2\xf5(\xdc\x0bR@'
tRp3182
sg577
I9223372036854775807
sssI372
(dp3183
I113
g1542
sI366
g3157
sI78
g1273
sI377
(dp3184
g568
g579
sg570
g571
(g573
S'\x00\x00\x00\x00\x008/@'
tRp3185
sg575
g571
(g573
S'G\xe1z\x14\xee\xc5Q@'
tRp3186
sg577
I9223372036854775807
sssI373
(dp3187
I346
g3050
sI22
g788
ssI374
(dp3188
I379
(dp3189
g568
g579
sg570
g571
(g573
S'\x00\x00\x00\x00\x008/@'
tRp3190
sg575
g571
(g573
S'G\xe1z\x14\xee\xc5Q@'
tRp3191
sg577
I9223372036854775807
ssI424
(dp3192
g568
g579
sg570
g571
(g573
S'\x00\x00\x00\x00\x008?@'
tRp3193
sg575
g571
(g573
S'\x90\xc2\xf5(\xdc\x0bR@'
tRp3194
sg577
I9223372036854775807
ssI367
g3164
sI79
g1280
ssI375
(dp3195
I320
g2913
sI324
g2938
sI254
g2541
sI14
g717
ssI376
(dp3196
I336
g2992
sI385
(dp3197
g568
g579
sg570
g571
(g573
S'\x00\x00\x00\x00\x008?@'
tRp3198
sg575
g571
(g573
S'\x90\xc2\xf5(\xdc\x0bR@'
tRp3199
sg577
I9223372036854775807
ssI370
g3170
sI447
(dp3200
g568
g579
sg570
g571
(g573
S'\x00\x00\x00\x00\x008?@'
tRp3201
sg575
g571
(g573
S'\x90\xc2\xf5(\xdc\x0bR@'
tRp3202
sg577
I9223372036854775807
sssI377
(dp3203
I120
g1591
sI83
g1317
sI372
g3184
sI383
(dp3204
g568
g579
sg570
g571
(g573
S'\x00\x00\x00\x00\x008/@'
tRp3205
sg575
g571
(g573
S'G\xe1z\x14\xee\xc5Q@'
tRp3206
sg577
I9223372036854775807
sssI378
(dp3207
I338
g3003
sI371
g3180
sI386
(dp3208
g568
g579
sg570
g571
(g573
S'\x00\x00\x00\x00\x008?@'
tRp3209
sg575
g571
(g573
S'\x90\xc2\xf5(\xdc\x0bR@'
tRp3210
sg577
I9223372036854775807
ssI431
(dp3211
g568
g579
sg570
g571
(g573
S'\x00\x00\x00\x00\x008?@'
tRp3212
sg575
g571
(g573
S'\x90\xc2\xf5(\xdc\x0bR@'
tRp3213
sg577
I9223372036854775807
sssI379
(dp3214
I384
(dp3215
g568
g579
sg570
g571
(g573
S'\x00\x00\x00\x00\x008/@'
tRp3216
sg575
g571
(g573
S'G\xe1z\x14\xee\xc5Q@'
tRp3217
sg577
I9223372036854775807
ssI85
g1328
sI374
g3189
ssI380
(dp3218
I400
(dp3219
g568
g579
sg570
g571
(g573
S'\x00\x00\x00\x00\x008O@'
tRp3220
sg575
g571
(g573
S'\x1e\x85\xebQ\xb8\x97R@'
tRp3221
sg577
I9223372036854775807
ssI487
(dp3222
g568
g579
sg570
g571
(g573
S'\x00\x00\x00\x00\x008O@'
tRp3223
sg575
g571
(g573
S'\x1e\x85\xebQ\xb8\x97R@'
tRp3224
sg577
I9223372036854775807
ssI364
g3146
sI295
g2771
ssI381
(dp3225
I389
(dp3226
g568
g593
sg570
g571
(g573
S'\x00\x00\x00\x00\x008?@'
tRp3227
sg575
g571
(g573
S'\x85\xebQ\xb8\xde\xc1`@'
tRp3228
sg577
I9223372036854775807
ssI341
g3024
sI365
g3153
ssI382
(dp3229
I531
(dp3230
g568
g569
sg570
g571
(g573
S'\x00\x00\x00\x00\x008?@'
tRp3231
sg575
g571
(g573
S'\xcd\xcc\xcc\xcc\xcc\xc7i@'
tRp3232
sg577
I9223372036854775807
ssI470
(dp3233
g568
g579
sg570
g571
(g573
S'\x00\x00\x00\x00\x008?@'
tRp3234
sg575
g571
(g573
S'\x90\xc2\xf5(\xdc\x0bR@'
tRp3235
sg577
I9223372036854775807
ssI503
(dp3236
g568
g569
sg570
g571
(g573
S'\x00\x00\x00\x00\x008O@'
tRp3237
sg575
g571
(g573
S'\x99\x99\x99\x99\x99\x8fj@'
tRp3238
sg577
I9223372036854775807
sssI383
(dp3239
I392
(dp3240
g568
g579
sg570
g571
(g573
S'\x00\x00\x00\x00\x008?@'
tRp3241
sg575
g571
(g573
S'\x90\xc2\xf5(\xdc\x0bR@'
tRp3242
sg577
I9223372036854775807
ssI377
g3204
sI122
g1611
sI86
g1338
ssI384
(dp3243
I88
g1346
sI434
(dp3244
g568
g593
sg570
g571
(g573
S'\x00\x00\x00\x00\x008?@'
tRp3245
sg575
g571
(g573
S'\x85\xebQ\xb8\xde\xc1`@'
tRp3246
sg577
I9223372036854775807
ssI379
g3215
sI407
(dp3247
g568
g579
sg570
g571
(g573
S'\x00\x00\x00\x00\x008O@'
tRp3248
sg575
g571
(g573
S'\x1e\x85\xebQ\xb8\x97R@'
tRp3249
sg577
I9223372036854775807
sssI385
(dp3250
I376
g3197
sI346
g3047
sI437
(dp3251
g568
g569
sg570
g571
(g573
S'\x00\x00\x00\x00\x008?@'
tRp3252
sg575
g571
(g573
S'\xcd\xcc\xcc\xcc\xcc\xc7i@'
tRp3253
sg577
I9223372036854775807
sssI386
(dp3254
I378
g3208
sI348
g3061
sI398
(dp3255
g568
g579
sg570
g571
(g573
S'\x00\x00\x00\x00\x008?@'
tRp3256
sg575
g571
(g573
S'\x90\xc2\xf5(\xdc\x0bR@'
tRp3257
sg577
I9223372036854775807
ssI439
(dp3258
g568
g579
sg570
g571
(g573
S'\x00\x00\x00\x00\x008?@'
tRp3259
sg575
g571
(g573
S'\x90\xc2\xf5(\xdc\x0bR@'
tRp3260
sg577
I9223372036854775807
sssI387
(dp3261
I425
(dp3262
g568
g579
sg570
g571
(g573
S'\x00\x00\x00\x00\x008_@'
tRp3263
sg575
g571
(g573
S'>\n\xd7\xa3p\xafS@'
tRp3264
sg577
I9223372036854775807
ssI211
g2249
sI29
g858
sI357
g3115
ssI388
(dp3265
I370
g3173
sI402
(dp3266
g568
g579
sg570
g571
(g573
S'\x00\x00\x00\x00\x008O@'
tRp3267
sg575
g571
(g573
S'\x1e\x85\xebQ\xb8\x97R@'
tRp3268
sg577
I9223372036854775807
ssI470
(dp3269
g568
g579
sg570
g571
(g573
S'\x00\x00\x00\x00\x008?@'
tRp3270
sg575
g571
(g573
S'\x90\xc2\xf5(\xdc\x0bR@'
tRp3271
sg577
I9223372036854775807
ssI447
(dp3272
g568
g579
sg570
g571
(g573
S'\x00\x00\x00\x00\x008?@'
tRp3273
sg575
g571
(g573
S'\x90\xc2\xf5(\xdc\x0bR@'
tRp3274
sg577
I9223372036854775807
sssI389
(dp3275
I401
(dp3276
g568
g593
sg570
g571
(g573
S'\x00\x00\x00\x00\x008?@'
tRp3277
sg575
g571
(g573
S'\x85\xebQ\xb8\xde\xc1`@'
tRp3278
sg577
I9223372036854775807
ssI349
g3068
sI381
g3226
ssI390
(dp3279
I396
(dp3280
g568
g579
sg570
g571
(g573
S'\x00\x00\x00\x00\x008/@'
tRp3281
sg575
g571
(g573
S'G\xe1z\x14\xee\xc5Q@'
tRp3282
sg577
I9223372036854775807
ssI130
g1673
sI228
g2368
ssI391
(dp3283
I131
g1683
sI397
(dp3284
g568
g579
sg570
g571
(g573
S'\x00\x00\x00\x00\x008/@'
tRp3285
sg575
g571
(g573
S'G\xe1z\x14\xee\xc5Q@'
tRp3286
sg577
I9223372036854775807
ssI350
g3072
ssI392
(dp3287
I544
(dp3288
g568
g579
sg570
g571
(g573
S'\x00\x00\x00\x00\x008?@'
tRp3289
sg575
g571
(g573
S'\x90\xc2\xf5(\xdc\x0bR@'
tRp3290
sg577
I9223372036854775807
ssI444
(dp3291
g568
g579
sg570
g571
(g573
S'\x00\x00\x00\x00\x008?@'
tRp3292
sg575
g571
(g573
S'\x90\xc2\xf5(\xdc\x0bR@'
tRp3293
sg577
I9223372036854775807
ssI405
(dp3294
g568
g579
sg570
g571
(g573
S'\x00\x00\x00\x00\x008?@'
tRp3295
sg575
g571
(g573
S'\x90\xc2\xf5(\xdc\x0bR@'
tRp3296
sg577
I9223372036854775807
ssI383
g3240
ssI393
(dp3297
I394
(dp3298
g568
g579
sg570
g571
(g573
S'\x00\x00\x00\x00\x008\x0f@'
tRp3299
sg575
g571
(g573
S'R\xb8\x1e\x85{\x91Q@'
tRp3300
sg577
I9223372036854775807
ssI251
g2520
sI477
(dp3301
g568
g579
sg570
g571
(g573
S'\x00\x00\x00\x00\x008\x0f@'
tRp3302
sg575
g571
(g573
S'R\xb8\x1e\x85{\x91Q@'
tRp3303
sg577
I9223372036854775807
sssI394
(dp3304
I393
g3298
sI270
g2641
sI479
(dp3305
g568
g579
sg570
g571
(g573
S'\x00\x00\x00\x00\x008\x0f@'
tRp3306
sg575
g571
(g573
S'R\xb8\x1e\x85{\x91Q@'
tRp3307
sg577
I9223372036854775807
sssI395
(dp3308
I345
g3043
sI308
g2844
sI417
(dp3309
g568
g579
sg570
g571
(g573
S'\x00\x00\x00\x00\x008O@'
tRp3310
sg575
g571
(g573
S'\x1e\x85\xebQ\xb8\x97R@'
tRp3311
sg577
I9223372036854775807
sssI396
(dp3312
I408
(dp3313
g568
g569
sg570
g571
(g573
S'\x00\x00\x00\x00\x008?@'
tRp3314
sg575
g571
(g573
S'\xcd\xcc\xcc\xcc\xcc\xc7i@'
tRp3315
sg577
I9223372036854775807
ssI137
g1725
sI390
g3280
sI305
g2823
ssI397
(dp3316
I138
g1732
sI404
(dp3317
g568
g579
sg570
g571
(g573
S'\x00\x00\x00\x00\x008/@'
tRp3318
sg575
g571
(g573
S'G\xe1z\x14\xee\xc5Q@'
tRp3319
sg577
I9223372036854775807
ssI391
g3284
ssI398
(dp3320
I386
g3255
sI355
g3101
sI410
(dp3321
g568
g579
sg570
g571
(g573
S'\x00\x00\x00\x00\x008?@'
tRp3322
sg575
g571
(g573
S'\x90\xc2\xf5(\xdc\x0bR@'
tRp3323
sg577
I9223372036854775807
ssI451
(dp3324
g568
g569
sg570
g571
(g573
S'\x00\x00\x00\x00\x008?@'
tRp3325
sg575
g571
(g573
S'\xcd\xcc\xcc\xcc\xcc\xc7i@'
tRp3326
sg577
I9223372036854775807
sssI399
(dp3327
I74
g1248
sI403
(dp3328
g568
g579
sg570
g571
(g573
S'\x00\x00\x00\x00\x008\x1f@'
tRp3329
sg575
g571
(g573
S'\xa4p=\n\xf7\xa2Q@'
tRp3330
sg577
I9223372036854775807
ssI324
g2935
sI14
g723
ssI400
(dp3331
I380
g3219
sI308
g2841
sI502
(dp3332
g568
g579
sg570
g571
(g573
S'\x00\x00\x00\x00\x008O@'
tRp3333
sg575
g571
(g573
S'\x1e\x85\xebQ\xb8\x97R@'
tRp3334
sg577
I9223372036854775807
ssI417
(dp3335
g568
g579
sg570
g571
(g573
S'\x00\x00\x00\x00\x008O@'
tRp3336
sg575
g571
(g573
S'\x1e\x85\xebQ\xb8\x97R@'
tRp3337
sg577
I9223372036854775807
sssI401
(dp3338
I418
(dp3339
g568
g593
sg570
g571
(g573
S'\x00\x00\x00\x00\x008O@'
tRp3340
sg575
g571
(g573
S'\n\xd7\xa3p\xbdCa@'
tRp3341
sg577
I9223372036854775807
ssI356
g3108
sI389
g3276
ssI402
(dp3342
I388
g3266
sI310
g2858
sI503
(dp3343
g568
g593
sg570
g571
(g573
S'\x00\x00\x00\x00\x008O@'
tRp3344
sg575
g571
(g573
S'\n\xd7\xa3p\xbdCa@'
tRp3345
sg577
I9223372036854775807
sssI403
(dp3346
I259
g2567
sI399
g3328
sI406
(dp3347
g568
g579
sg570
g571
(g573
S'\x00\x00\x00\x00\x008\x1f@'
tRp3348
sg575
g571
(g573
S'\xa4p=\n\xf7\xa2Q@'
tRp3349
sg577
I9223372036854775807
ssI15
g730
ssI404
(dp3350
I35
g915
sI412
(dp3351
g568
g579
sg570
g571
(g573
S'\x00\x00\x00\x00\x008?@'
tRp3352
sg575
g571
(g573
S'\x90\xc2\xf5(\xdc\x0bR@'
tRp3353
sg577
I9223372036854775807
ssI397
g3317
sI143
g1764
ssI405
(dp3354
I392
g3294
sI452
(dp3355
g568
g593
sg570
g571
(g573
S'\x00\x00\x00\x00\x008?@'
tRp3356
sg575
g571
(g573
S'\x85\xebQ\xb8\xde\xc1`@'
tRp3357
sg577
I9223372036854775807
ssI357
g3118
ssI406
(dp3358
I18
g757
sI403
g3347
sI261
g2587
ssI407
(dp3359
I312
g2869
sI384
g3247
sI507
(dp3360
g568
g579
sg570
g571
(g573
S'\x00\x00\x00\x00\x008O@'
tRp3361
sg575
g571
(g573
S'\x1e\x85\xebQ\xb8\x97R@'
tRp3362
sg577
I9223372036854775807
ssI421
(dp3363
g568
g579
sg570
g571
(g573
S'\x00\x00\x00\x00\x008O@'
tRp3364
sg575
g571
(g573
S'\x1e\x85\xebQ\xb8\x97R@'
tRp3365
sg577
I9223372036854775807
sssI408
(dp3366
I396
g3313
sI414
(dp3367
g568
g579
sg570
g571
(g573
S'\x00\x00\x00\x00\x008?@'
tRp3368
sg575
g571
(g573
S'\x90\xc2\xf5(\xdc\x0bR@'
tRp3369
sg577
I9223372036854775807
ssI454
(dp3370
g568
g569
sg570
g571
(g573
S'\x00\x00\x00\x00\x008?@'
tRp3371
sg575
g571
(g573
S'\xcd\xcc\xcc\xcc\xcc\xc7i@'
tRp3372
sg577
I9223372036854775807
sssI409
(dp3373
I353
g3090
sI146
g1782
sI99
g1423
ssI410
(dp3374
I456
(dp3375
g568
g579
sg570
g571
(g573
S'\x00\x00\x00\x00\x008?@'
tRp3376
sg575
g571
(g573
S'\x90\xc2\xf5(\xdc\x0bR@'
tRp3377
sg577
I9223372036854775807
ssI189
g2098
sI398
g3321
sI413
(dp3378
g568
g579
sg570
g571
(g573
S'\x00\x00\x00\x00\x008/@'
tRp3379
sg575
g571
(g573
S'G\xe1z\x14\xee\xc5Q@'
tRp3380
sg577
I9223372036854775807
sssI411
(dp3381
I512
(dp3382
g568
g593
sg570
g571
(g573
S'\x00\x00\x00\x00\x008O@'
tRp3383
sg575
g571
(g573
S'\n\xd7\xa3p\xbdCa@'
tRp3384
sg577
I9223372036854775807
ssI361
g3134
sI419
(dp3385
g568
g579
sg570
g571
(g573
S'\x00\x00\x00\x00\x008?@'
tRp3386
sg575
g571
(g573
S'\x90\xc2\xf5(\xdc\x0bR@'
tRp3387
sg577
I9223372036854775807
sssI412
(dp3388
I420
(dp3389
g568
g579
sg570
g571
(g573
S'\x00\x00\x00\x00\x008?@'
tRp3390
sg575
g571
(g573
S'\x90\xc2\xf5(\xdc\x0bR@'
tRp3391
sg577
I9223372036854775807
ssI362
g3138
sI459
(dp3392
g568
g579
sg570
g571
(g573
S'\x00\x00\x00\x00\x008?@'
tRp3393
sg575
g571
(g573
S'\x90\xc2\xf5(\xdc\x0bR@'
tRp3394
sg577
I9223372036854775807
ssI404
g3351
ssI413
(dp3395
I104
g1470
sI416
(dp3396
g568
g579
sg570
g571
(g573
S'\x00\x00\x00\x00\x008/@'
tRp3397
sg575
g571
(g573
S'G\xe1z\x14\xee\xc5Q@'
tRp3398
sg577
I9223372036854775807
ssI410
g3378
ssI414
(dp3399
I408
g3367
sI465
(dp3400
g568
g579
sg570
g571
(g573
S'\x00\x00\x00\x00\x008?@'
tRp3401
sg575
g571
(g573
S'\x90\xc2\xf5(\xdc\x0bR@'
tRp3402
sg577
I9223372036854775807
ssI366
g3160
sI423
(dp3403
g568
g579
sg570
g571
(g573
S'\x00\x00\x00\x00\x008?@'
tRp3404
sg575
g571
(g573
S'\x90\xc2\xf5(\xdc\x0bR@'
tRp3405
sg577
I9223372036854775807
sssI415
(dp3406
I353
g3093
sI107
g1497
sI155
g1854
ssI416
(dp3407
I424
(dp3408
g568
g579
sg570
g571
(g573
S'\x00\x00\x00\x00\x008?@'
tRp3409
sg575
g571
(g573
S'\x90\xc2\xf5(\xdc\x0bR@'
tRp3410
sg577
I9223372036854775807
ssI467
(dp3411
g568
g579
sg570
g571
(g573
S'\x00\x00\x00\x00\x008?@'
tRp3412
sg575
g571
(g573
S'\x90\xc2\xf5(\xdc\x0bR@'
tRp3413
sg577
I9223372036854775807
ssI108
g1501
sI413
g3396
ssI417
(dp3414
I400
g3335
sI395
g3309
sI428
(dp3415
g568
g579
sg570
g571
(g573
S'\x00\x00\x00\x00\x008?@'
tRp3416
sg575
g571
(g573
S'\x90\xc2\xf5(\xdc\x0bR@'
tRp3417
sg577
I9223372036854775807
ssI469
(dp3418
g568
g579
sg570
g571
(g573
S'\x00\x00\x00\x00\x008?@'
tRp3419
sg575
g571
(g573
S'\x90\xc2\xf5(\xdc\x0bR@'
tRp3420
sg577
I9223372036854775807
sssI418
(dp3421
I504
(dp3422
g568
g593
sg570
g571
(g573
S'\x00\x00\x00\x00\x008O@'
tRp3423
sg575
g571
(g573
S'\n\xd7\xa3p\xbdCa@'
tRp3424
sg577
I9223372036854775807
ssI401
g3339
sI522
(dp3425
g568
g569
sg570
g571
(g573
S'\x00\x00\x00\x00\x008O@'
tRp3426
sg575
g571
(g573
S'\x99\x99\x99\x99\x99\x8fj@'
tRp3427
sg577
I9223372036854775807
ssI327
g2950
ssI419
(dp3428
I371
g3177
sI411
g3385
sI431
(dp3429
g568
g579
sg570
g571
(g573
S'\x00\x00\x00\x00\x008?@'
tRp3430
sg575
g571
(g573
S'\x90\xc2\xf5(\xdc\x0bR@'
tRp3431
sg577
I9223372036854775807
sssI420
(dp3432
I432
(dp3433
g568
g579
sg570
g571
(g573
S'\x00\x00\x00\x00\x008?@'
tRp3434
sg575
g571
(g573
S'\x90\xc2\xf5(\xdc\x0bR@'
tRp3435
sg577
I9223372036854775807
ssI472
(dp3436
g568
g579
sg570
g571
(g573
S'\x00\x00\x00\x00\x008?@'
tRp3437
sg575
g571
(g573
S'\x90\xc2\xf5(\xdc\x0bR@'
tRp3438
sg577
I9223372036854775807
ssI412
g3389
ssI421
(dp3439
I441
(dp3440
g568
g579
sg570
g571
(g573
S'\x00\x00\x00\x00\x008O@'
tRp3441
sg575
g571
(g573
S'\x1e\x85\xebQ\xb8\x97R@'
tRp3442
sg577
I9223372036854775807
ssI527
(dp3443
g568
g579
sg570
g571
(g573
S'\x00\x00\x00\x00\x008O@'
tRp3444
sg575
g571
(g573
S'\x1e\x85\xebQ\xb8\x97R@'
tRp3445
sg577
I9223372036854775807
ssI332
g2976
sI407
g3363
ssI422
(dp3446
I347
g3054
sI315
g2884
sI165
g1927
ssI423
(dp3447
I275
g2673
sI426
(dp3448
g568
g579
sg570
g571
(g573
S'\x00\x00\x00\x00\x008\x1f@'
tRp3449
sg575
g571
(g573
S'\xa4p=\n\xf7\xa2Q@'
tRp3450
sg577
I9223372036854775807
ssI163
g1904
sI414
g3403
ssI424
(dp3451
I416
g3408
sI434
(dp3452
g568
g579
sg570
g571
(g573
S'\x00\x00\x00\x00\x008?@'
tRp3453
sg575
g571
(g573
S'\x90\xc2\xf5(\xdc\x0bR@'
tRp3454
sg577
I9223372036854775807
ssI476
(dp3455
g568
g579
sg570
g571
(g573
S'\x00\x00\x00\x00\x008?@'
tRp3456
sg575
g571
(g573
S'\x90\xc2\xf5(\xdc\x0bR@'
tRp3457
sg577
I9223372036854775807
ssI374
g3192
ssI425
(dp3458
I529
(dp3459
g568
g593
sg570
g571
(g573
S'\x00\x00\x00\x00\x008O@'
tRp3460
sg575
g571
(g573
S'\n\xd7\xa3p\xbdCa@'
tRp3461
sg577
I9223372036854775807
ssI250
g2516
sI387
g3262
sI446
(dp3462
g568
g579
sg570
g571
(g573
S'\x00\x00\x00\x00\x008O@'
tRp3463
sg575
g571
(g573
S'\x1e\x85\xebQ\xb8\x97R@'
tRp3464
sg577
I9223372036854775807
sssI426
(dp3465
I430
(dp3466
g568
g579
sg570
g571
(g573
S'\x00\x00\x00\x00\x008\x1f@'
tRp3467
sg575
g571
(g573
S'\xa4p=\n\xf7\xa2Q@'
tRp3468
sg577
I9223372036854775807
ssI278
g2688
sI423
g3448
ssI427
(dp3469
I265
g2609
sI534
(dp3470
g568
g579
sg570
g571
(g573
S'\x00\x00\x00\x00\x008/@'
tRp3471
sg575
g571
(g573
S'G\xe1z\x14\xee\xc5Q@'
tRp3472
sg577
I9223372036854775807
ssI222
g2326
sI525
(dp3473
g568
g579
sg570
g571
(g573
S'\x00\x00\x00\x00\x008/@'
tRp3474
sg575
g571
(g573
S'G\xe1z\x14\xee\xc5Q@'
tRp3475
sg577
I9223372036854775807
sssI428
(dp3476
I480
(dp3477
g568
g579
sg570
g571
(g573
S'\x00\x00\x00\x00\x008?@'
tRp3478
sg575
g571
(g573
S'\x90\xc2\xf5(\xdc\x0bR@'
tRp3479
sg577
I9223372036854775807
ssI417
g3415
sI435
(dp3480
g568
g579
sg570
g571
(g573
S'\x00\x00\x00\x00\x008?@'
tRp3481
sg575
g571
(g573
S'\x90\xc2\xf5(\xdc\x0bR@'
tRp3482
sg577
I9223372036854775807
sssI429
(dp3483
I436
(dp3484
g568
g579
sg570
g571
(g573
S'\x00\x00\x00\x00\x008?@'
tRp3485
sg575
g571
(g573
S'\x90\xc2\xf5(\xdc\x0bR@'
tRp3486
sg577
I9223372036854775807
ssI164
g1914
sI157
g1871
ssI430
(dp3487
I168
g1954
sI433
(dp3488
g568
g579
sg570
g571
(g573
S'\x00\x00\x00\x00\x008/@'
tRp3489
sg575
g571
(g573
S'G\xe1z\x14\xee\xc5Q@'
tRp3490
sg577
I9223372036854775807
ssI282
g2713
sI426
g3466
ssI431
(dp3491
I378
g3211
sI419
g3429
sI532
(dp3492
g568
g579
sg570
g571
(g573
S'\x00\x00\x00\x00\x008O@'
tRp3493
sg575
g571
(g573
S'\x1e\x85\xebQ\xb8\x97R@'
tRp3494
sg577
I9223372036854775807
ssI439
(dp3495
g568
g579
sg570
g571
(g573
S'\x00\x00\x00\x00\x008?@'
tRp3496
sg575
g571
(g573
S'\x90\xc2\xf5(\xdc\x0bR@'
tRp3497
sg577
I9223372036854775807
sssI432
(dp3498
I339
g3010
sI420
g3433
sI485
(dp3499
g568
g579
sg570
g571
(g573
S'\x00\x00\x00\x00\x008?@'
tRp3500
sg575
g571
(g573
S'\x90\xc2\xf5(\xdc\x0bR@'
tRp3501
sg577
I9223372036854775807
sssI433
(dp3502
I122
g1608
sI173
g1986
sI430
g3488
sI438
(dp3503
g568
g579
sg570
g571
(g573
S'\x00\x00\x00\x00\x008/@'
tRp3504
sg575
g571
(g573
S'G\xe1z\x14\xee\xc5Q@'
tRp3505
sg577
I9223372036854775807
sssI434
(dp3506
I384
g3244
sI424
g3452
sI491
(dp3507
g568
g593
sg570
g571
(g573
S'\x00\x00\x00\x00\x008?@'
tRp3508
sg575
g571
(g573
S'\x85\xebQ\xb8\xde\xc1`@'
tRp3509
sg577
I9223372036854775807
sssI435
(dp3510
I345
g3040
sI428
g3480
sI492
(dp3511
g568
g593
sg570
g571
(g573
S'\x00\x00\x00\x00\x008?@'
tRp3512
sg575
g571
(g573
S'\x85\xebQ\xb8\xde\xc1`@'
tRp3513
sg577
I9223372036854775807
sssI436
(dp3514
I218
g2298
sI443
(dp3515
g568
g579
sg570
g571
(g573
S'\x00\x00\x00\x00\x008/@'
tRp3516
sg575
g571
(g573
S'G\xe1z\x14\xee\xc5Q@'
tRp3517
sg577
I9223372036854775807
ssI125
g1629
sI429
g3484
ssI437
(dp3518
I385
g3251
sI493
(dp3519
g568
g569
sg570
g571
(g573
S'\x00\x00\x00\x00\x008?@'
tRp3520
sg575
g571
(g573
S'\xcd\xcc\xcc\xcc\xcc\xc7i@'
tRp3521
sg577
I9223372036854775807
ssI447
(dp3522
g568
g579
sg570
g571
(g573
S'\x00\x00\x00\x00\x008?@'
tRp3523
sg575
g571
(g573
S'\x90\xc2\xf5(\xdc\x0bR@'
tRp3524
sg577
I9223372036854775807
sssI438
(dp3525
I177
g2017
sI444
(dp3526
g568
g579
sg570
g571
(g573
S'\x00\x00\x00\x00\x008/@'
tRp3527
sg575
g571
(g573
S'G\xe1z\x14\xee\xc5Q@'
tRp3528
sg577
I9223372036854775807
ssI433
g3503
ssI439
(dp3529
I386
g3258
sI451
(dp3530
g568
g579
sg570
g571
(g573
S'\x00\x00\x00\x00\x008?@'
tRp3531
sg575
g571
(g573
S'\x90\xc2\xf5(\xdc\x0bR@'
tRp3532
sg577
I9223372036854775807
ssI431
g3495
ssI440
(dp3533
I442
(dp3534
g568
g579
sg570
g571
(g573
S'\x00\x00\x00\x00\x008\x1f@'
tRp3535
sg575
g571
(g573
S'\xa4p=\n\xf7\xa2Q@'
tRp3536
sg577
I9223372036854775807
ssI299
g2790
sI287
g2736
ssI441
(dp3537
I457
(dp3538
g568
g579
sg570
g571
(g573
S'\x00\x00\x00\x00\x008O@'
tRp3539
sg575
g571
(g573
S'\x1e\x85\xebQ\xb8\x97R@'
tRp3540
sg577
I9223372036854775807
ssI100
g1433
sI421
g3440
sI543
(dp3541
g568
g579
sg570
g571
(g573
S'\x00\x00\x00\x00\x008O@'
tRp3542
sg575
g571
(g573
S'\x1e\x85\xebQ\xb8\x97R@'
tRp3543
sg577
I9223372036854775807
sssI442
(dp3544
I440
g3534
sI290
g2751
sI43
g989
sI445
(dp3545
g568
g579
sg570
g571
(g573
S'\x00\x00\x00\x00\x008\x1f@'
tRp3546
sg575
g571
(g573
S'\xa4p=\n\xf7\xa2Q@'
tRp3547
sg577
I9223372036854775807
sssI443
(dp3548
I448
(dp3549
g568
g579
sg570
g571
(g573
S'\x00\x00\x00\x00\x008/@'
tRp3550
sg575
g571
(g573
S'G\xe1z\x14\xee\xc5Q@'
tRp3551
sg577
I9223372036854775807
ssI130
g1670
sI436
g3515
ssI444
(dp3552
I392
g3291
sI450
(dp3553
g568
g579
sg570
g571
(g573
S'\x00\x00\x00\x00\x008/@'
tRp3554
sg575
g571
(g573
S'G\xe1z\x14\xee\xc5Q@'
tRp3555
sg577
I9223372036854775807
ssI438
g3526
sI182
g2055
ssI445
(dp3556
I105
g1480
sI442
g3545
sI45
g1009
ssI446
(dp3557
I425
g3462
sI548
(dp3558
g568
g579
sg570
g571
(g573
S'\x00\x00\x00\x00\x008O@'
tRp3559
sg575
g571
(g573
S'\x1e\x85\xebQ\xb8\x97R@'
tRp3560
sg577
I9223372036854775807
ssI463
(dp3561
g568
g579
sg570
g571
(g573
S'\x00\x00\x00\x00\x008O@'
tRp3562
sg575
g571
(g573
S'\x1e\x85\xebQ\xb8\x97R@'
tRp3563
sg577
I9223372036854775807
sssI447
(dp3564
I376
g3200
sI481
(dp3565
g568
g579
sg570
g571
(g573
S'\x00\x00\x00\x00\x008?@'
tRp3566
sg575
g571
(g573
S'\x90\xc2\xf5(\xdc\x0bR@'
tRp3567
sg577
I9223372036854775807
ssI388
g3272
sI437
g3522
ssI448
(dp3568
I137
g1722
sI443
g3549
sI454
(dp3569
g568
g579
sg570
g571
(g573
S'\x00\x00\x00\x00\x008?@'
tRp3570
sg575
g571
(g573
S'\x90\xc2\xf5(\xdc\x0bR@'
tRp3571
sg577
I9223372036854775807
ssI499
(dp3572
g568
g579
sg570
g571
(g573
S'\x00\x00\x00\x00\x008?@'
tRp3573
sg575
g571
(g573
S'\x90\xc2\xf5(\xdc\x0bR@'
tRp3574
sg577
I9223372036854775807
sssI449
(dp3575
I112
g1538
sI138
g1729
sI538
(dp3576
g568
g579
sg570
g571
(g573
S'\x00\x00\x00\x00\x008/@'
tRp3577
sg575
g571
(g573
S'G\xe1z\x14\xee\xc5Q@'
tRp3578
sg577
I9223372036854775807
ssI30
g865
ssI450
(dp3579
I452
(dp3580
g568
g579
sg570
g571
(g573
S'\x00\x00\x00\x00\x008/@'
tRp3581
sg575
g571
(g573
S'G\xe1z\x14\xee\xc5Q@'
tRp3582
sg577
I9223372036854775807
ssI186
g2080
sI444
g3553
ssI451
(dp3583
I456
(dp3584
g568
g579
sg570
g571
(g573
S'\x00\x00\x00\x00\x008?@'
tRp3585
sg575
g571
(g573
S'\x90\xc2\xf5(\xdc\x0bR@'
tRp3586
sg577
I9223372036854775807
ssI501
(dp3587
g568
g569
sg570
g571
(g573
S'\x00\x00\x00\x00\x008?@'
tRp3588
sg575
g571
(g573
S'\xcd\xcc\xcc\xcc\xcc\xc7i@'
tRp3589
sg577
I9223372036854775807
ssI398
g3324
sI439
g3530
ssI452
(dp3590
I192
g2116
sI450
g3580
sI405
g3355
ssI453
(dp3591
I504
(dp3592
g568
g593
sg570
g571
(g573
S'\x00\x00\x00\x00\x008O@'
tRp3593
sg575
g571
(g573
S'\n\xd7\xa3p\xbdCa@'
tRp3594
sg577
I9223372036854775807
ssI5
g642
sI495
(dp3595
g568
g593
sg570
g571
(g573
S'\x00\x00\x00\x00\x008_@'
tRp3596
sg575
g571
(g573
S'\x15\xaeG\xe1zGb@'
tRp3597
sg577
I9223372036854775807
sssI454
(dp3598
I408
g3370
sI448
g3569
sI508
(dp3599
g568
g579
sg570
g571
(g573
S'\x00\x00\x00\x00\x008?@'
tRp3600
sg575
g571
(g573
S'\x90\xc2\xf5(\xdc\x0bR@'
tRp3601
sg577
I9223372036854775807
ssI465
(dp3602
g568
g569
sg570
g571
(g573
S'\x00\x00\x00\x00\x008?@'
tRp3603
sg575
g571
(g573
S'\xcd\xcc\xcc\xcc\xcc\xc7i@'
tRp3604
sg577
I9223372036854775807
sssI455
(dp3605
I194
g2133
sI459
(dp3606
g568
g579
sg570
g571
(g573
S'\x00\x00\x00\x00\x008/@'
tRp3607
sg575
g571
(g573
S'G\xe1z\x14\xee\xc5Q@'
tRp3608
sg577
I9223372036854775807
ssI30
g868
ssI456
(dp3609
I410
g3375
sI451
g3584
sI458
(dp3610
g568
g579
sg570
g571
(g573
S'\x00\x00\x00\x00\x008\x1f@'
tRp3611
sg575
g571
(g573
S'\xa4p=\n\xf7\xa2Q@'
tRp3612
sg577
I9223372036854775807
ssI54
g1075
ssI457
(dp3613
I360
g3127
sI9
g670
sI441
g3538
ssI458
(dp3614
I56
g1092
sI456
g3610
sI460
(dp3615
g568
g579
sg570
g571
(g573
S'\x00\x00\x00\x00\x008\x1f@'
tRp3616
sg575
g571
(g573
S'\xa4p=\n\xf7\xa2Q@'
tRp3617
sg577
I9223372036854775807
sssI459
(dp3618
I472
(dp3619
g568
g579
sg570
g571
(g573
S'\x00\x00\x00\x00\x008?@'
tRp3620
sg575
g571
(g573
S'\x90\xc2\xf5(\xdc\x0bR@'
tRp3621
sg577
I9223372036854775807
ssI201
g2182
sI412
g3392
sI455
g3606
ssI460
(dp3622
I464
(dp3623
g568
g579
sg570
g571
(g573
S'\x00\x00\x00\x00\x008\x1f@'
tRp3624
sg575
g571
(g573
S'\xa4p=\n\xf7\xa2Q@'
tRp3625
sg577
I9223372036854775807
ssI58
g1118
sI458
g3615
ssI461
(dp3626
I153
g1840
sI203
g2196
sI468
(dp3627
g568
g579
sg570
g571
(g573
S'\x00\x00\x00\x00\x008/@'
tRp3628
sg575
g571
(g573
S'G\xe1z\x14\xee\xc5Q@'
tRp3629
sg577
I9223372036854775807
sssI462
(dp3630
I364
g3149
sI487
(dp3631
g568
g579
sg570
g571
(g573
S'\x00\x00\x00\x00\x008O@'
tRp3632
sg575
g571
(g573
S'\x1e\x85\xebQ\xb8\x97R@'
tRp3633
sg577
I9223372036854775807
sssI463
(dp3634
I281
g2709
sI13
g713
sI446
g3561
sI503
(dp3635
g568
g579
sg570
g571
(g573
S'\x00\x00\x00\x00\x008_@'
tRp3636
sg575
g571
(g573
S'>\n\xd7\xa3p\xafS@'
tRp3637
sg577
I9223372036854775807
sssI464
(dp3638
I59
g1122
sI460
g3623
sI467
(dp3639
g568
g579
sg570
g571
(g573
S'\x00\x00\x00\x00\x008\x1f@'
tRp3640
sg575
g571
(g573
S'\xa4p=\n\xf7\xa2Q@'
tRp3641
sg577
I9223372036854775807
sssI465
(dp3642
I454
g3602
sI414
g3400
sI206
g2214
sI471
(dp3643
g568
g569
sg570
g571
(g573
S'\x00\x00\x00\x00\x008/@'
tRp3644
sg575
g571
(g573
S'ffff\xe6ci@'
tRp3645
sg577
I9223372036854775807
sssI466
(dp3646
I233
g2406
sI531
(dp3647
g568
g579
sg570
g571
(g573
S'\x00\x00\x00\x00\x008/@'
tRp3648
sg575
g571
(g573
S'G\xe1z\x14\xee\xc5Q@'
tRp3649
sg577
I9223372036854775807
ssI542
(dp3650
g568
g579
sg570
g571
(g573
S'\x00\x00\x00\x00\x008/@'
tRp3651
sg575
g571
(g573
S'G\xe1z\x14\xee\xc5Q@'
tRp3652
sg577
I9223372036854775807
sssI467
(dp3653
I416
g3411
sI464
g3639
sI476
(dp3654
g568
g579
sg570
g571
(g573
S'\x00\x00\x00\x00\x008?@'
tRp3655
sg575
g571
(g573
S'\x90\xc2\xf5(\xdc\x0bR@'
tRp3656
sg577
I9223372036854775807
ssI62
g1152
ssI468
(dp3657
I209
g2238
sI156
g1861
sI461
g3627
sI473
(dp3658
g568
g579
sg570
g571
(g573
S'\x00\x00\x00\x00\x008/@'
tRp3659
sg575
g571
(g573
S'G\xe1z\x14\xee\xc5Q@'
tRp3660
sg577
I9223372036854775807
sssI469
(dp3661
I480
(dp3662
g568
g579
sg570
g571
(g573
S'\x00\x00\x00\x00\x008?@'
tRp3663
sg575
g571
(g573
S'\x90\xc2\xf5(\xdc\x0bR@'
tRp3664
sg577
I9223372036854775807
ssI417
g3418
sI521
(dp3665
g568
g579
sg570
g571
(g573
S'\x00\x00\x00\x00\x008?@'
tRp3666
sg575
g571
(g573
S'\x90\xc2\xf5(\xdc\x0bR@'
tRp3667
sg577
I9223372036854775807
sssI470
(dp3668
I481
(dp3669
g568
g579
sg570
g571
(g573
S'\x00\x00\x00\x00\x008?@'
tRp3670
sg575
g571
(g573
S'\x90\xc2\xf5(\xdc\x0bR@'
tRp3671
sg577
I9223372036854775807
ssI388
g3269
sI382
g3233
ssI471
(dp3672
I465
g3643
sI474
(dp3673
g568
g579
sg570
g571
(g573
S'\x00\x00\x00\x00\x008\x1f@'
tRp3674
sg575
g571
(g573
S'\xa4p=\n\xf7\xa2Q@'
tRp3675
sg577
I9223372036854775807
ssI63
g1162
ssI472
(dp3676
I524
(dp3677
g568
g579
sg570
g571
(g573
S'\x00\x00\x00\x00\x008?@'
tRp3678
sg575
g571
(g573
S'\x90\xc2\xf5(\xdc\x0bR@'
tRp3679
sg577
I9223372036854775807
ssI459
g3619
sI420
g3436
sI485
(dp3680
g568
g579
sg570
g571
(g573
S'\x00\x00\x00\x00\x008?@'
tRp3681
sg575
g571
(g573
S'\x90\xc2\xf5(\xdc\x0bR@'
tRp3682
sg577
I9223372036854775807
sssI473
(dp3683
I216
g2287
sI161
g1887
sI468
g3658
sI478
(dp3684
g568
g579
sg570
g571
(g573
S'\x00\x00\x00\x00\x008/@'
tRp3685
sg575
g571
(g573
S'G\xe1z\x14\xee\xc5Q@'
tRp3686
sg577
I9223372036854775807
sssI474
(dp3687
I66
g1180
sI475
(dp3688
g568
g579
sg570
g571
(g573
S'\x00\x00\x00\x00\x008\x1f@'
tRp3689
sg575
g571
(g573
S'\xa4p=\n\xf7\xa2Q@'
tRp3690
sg577
I9223372036854775807
ssI471
g3673
ssI475
(dp3691
I474
g3688
sI163
g1901
sI68
g1203
sI483
(dp3692
g568
g579
sg570
g571
(g573
S'\x00\x00\x00\x00\x008/@'
tRp3693
sg575
g571
(g573
S'G\xe1z\x14\xee\xc5Q@'
tRp3694
sg577
I9223372036854775807
sssI476
(dp3695
I424
g3455
sI467
g3654
sI491
(dp3696
g568
g579
sg570
g571
(g573
S'\x00\x00\x00\x00\x008?@'
tRp3697
sg575
g571
(g573
S'\x90\xc2\xf5(\xdc\x0bR@'
tRp3698
sg577
I9223372036854775807
sssI477
(dp3699
I8
g663
sI393
g3301
sI479
(dp3700
g568
g579
sg570
g571
(g573
S'\x00\x00\x00\x00\x008\x0f@'
tRp3701
sg575
g571
(g573
S'R\xb8\x1e\x85{\x91Q@'
tRp3702
sg577
I9223372036854775807
sssI478
(dp3703
I473
g3684
sI291
g2755
sI486
(dp3704
g568
g579
sg570
g571
(g573
S'\x00\x00\x00\x00\x008/@'
tRp3705
sg575
g571
(g573
S'G\xe1z\x14\xee\xc5Q@'
tRp3706
sg577
I9223372036854775807
ssI166
g1934
ssI479
(dp3707
I482
(dp3708
g568
g579
sg570
g571
(g573
S'\x00\x00\x00\x00\x008\x0f@'
tRp3709
sg575
g571
(g573
S'R\xb8\x1e\x85{\x91Q@'
tRp3710
sg577
I9223372036854775807
ssI10
g683
sI394
g3305
sI477
g3700
ssI480
(dp3711
I224
g2337
sI488
(dp3712
g568
g579
sg570
g571
(g573
S'\x00\x00\x00\x00\x008/@'
tRp3713
sg575
g571
(g573
S'G\xe1z\x14\xee\xc5Q@'
tRp3714
sg577
I9223372036854775807
ssI428
g3477
sI469
g3662
ssI481
(dp3715
I225
g2347
sI489
(dp3716
g568
g579
sg570
g571
(g573
S'\x00\x00\x00\x00\x008/@'
tRp3717
sg575
g571
(g573
S'G\xe1z\x14\xee\xc5Q@'
tRp3718
sg577
I9223372036854775807
ssI470
g3669
sI447
g3565
ssI482
(dp3719
I11
g693
sI270
g2644
sI479
g3708
ssI483
(dp3720
I321
g2917
sI475
g3692
sI175
g2000
ssI484
(dp3721
I188
g2094
sI140
g1746
sI101
g1440
sI158
g1878
ssI485
(dp3722
I432
g3499
sI472
g3680
sI533
(dp3723
g568
g579
sg570
g571
(g573
S'\x00\x00\x00\x00\x008?@'
tRp3724
sg575
g571
(g573
S'\x90\xc2\xf5(\xdc\x0bR@'
tRp3725
sg577
I9223372036854775807
sssI486
(dp3726
I170
g1962
sI478
g3704
sI230
g2385
ssI487
(dp3727
I380
g3222
sI502
(dp3728
g568
g579
sg570
g571
(g573
S'\x00\x00\x00\x00\x008O@'
tRp3729
sg575
g571
(g573
S'\x1e\x85\xebQ\xb8\x97R@'
tRp3730
sg577
I9223372036854775807
ssI462
g3631
ssI488
(dp3731
I480
g3712
sI492
(dp3732
g568
g579
sg570
g571
(g573
S'\x00\x00\x00\x00\x008/@'
tRp3733
sg575
g571
(g573
S'G\xe1z\x14\xee\xc5Q@'
tRp3734
sg577
I9223372036854775807
ssI231
g2389
ssI489
(dp3735
I233
g2412
sI493
(dp3736
g568
g579
sg570
g571
(g573
S'\x00\x00\x00\x00\x008/@'
tRp3737
sg575
g571
(g573
S'G\xe1z\x14\xee\xc5Q@'
tRp3738
sg577
I9223372036854775807
ssI481
g3716
ssI490
(dp3739
I329
g2961
sI537
(dp3740
g568
g579
sg570
g571
(g573
S'\x00\x00\x00\x00\x008?@'
tRp3741
sg575
g571
(g573
S'\x90\xc2\xf5(\xdc\x0bR@'
tRp3742
sg577
I9223372036854775807
ssI494
(dp3743
g568
g579
sg570
g571
(g573
S'\x00\x00\x00\x00\x008/@'
tRp3744
sg575
g571
(g573
S'G\xe1z\x14\xee\xc5Q@'
tRp3745
sg577
I9223372036854775807
ssI175
g1997
ssI491
(dp3746
I497
(dp3747
g568
g579
sg570
g571
(g573
S'\x00\x00\x00\x00\x008?@'
tRp3748
sg575
g571
(g573
S'\x90\xc2\xf5(\xdc\x0bR@'
tRp3749
sg577
I9223372036854775807
ssI434
g3507
sI539
(dp3750
g568
g593
sg570
g571
(g573
S'\x00\x00\x00\x00\x008?@'
tRp3751
sg575
g571
(g573
S'\x85\xebQ\xb8\xde\xc1`@'
tRp3752
sg577
I9223372036854775807
ssI476
g3696
ssI492
(dp3753
I488
g3732
sI235
g2426
sI435
g3511
ssI493
(dp3754
I489
g3736
sI236
g2430
sI437
g3519
ssI494
(dp3755
I496
(dp3756
g568
g579
sg570
g571
(g573
S'\x00\x00\x00\x00\x008/@'
tRp3757
sg575
g571
(g573
S'G\xe1z\x14\xee\xc5Q@'
tRp3758
sg577
I9223372036854775807
ssI177
g2011
sI490
g3743
ssI495
(dp3759
I32
g891
sI97
g1415
sI269
g2634
sI453
g3595
ssI496
(dp3760
I545
(dp3761
g568
g579
sg570
g571
(g573
S'\x00\x00\x00\x00\x008?@'
tRp3762
sg575
g571
(g573
S'\x90\xc2\xf5(\xdc\x0bR@'
tRp3763
sg577
I9223372036854775807
ssI500
(dp3764
g568
g579
sg570
g571
(g573
S'\x00\x00\x00\x00\x008/@'
tRp3765
sg575
g571
(g573
S'G\xe1z\x14\xee\xc5Q@'
tRp3766
sg577
I9223372036854775807
ssI494
g3756
sI182
g2049
ssI497
(dp3767
I546
(dp3768
g568
g579
sg570
g571
(g573
S'\x00\x00\x00\x00\x008?@'
tRp3769
sg575
g571
(g573
S'\x90\xc2\xf5(\xdc\x0bR@'
tRp3770
sg577
I9223372036854775807
ssI491
g3747
sI507
(dp3771
g568
g579
sg570
g571
(g573
S'\x00\x00\x00\x00\x008?@'
tRp3772
sg575
g571
(g573
S'\x90\xc2\xf5(\xdc\x0bR@'
tRp3773
sg577
I9223372036854775807
sssI498
(dp3774
I248
g2499
sI515
(dp3775
g568
g579
sg570
g571
(g573
S'\x00\x00\x00\x00\x008/@'
tRp3776
sg575
g571
(g573
S'G\xe1z\x14\xee\xc5Q@'
tRp3777
sg577
I9223372036854775807
ssI260
g2577
sI342
g3031
ssI499
(dp3778
I448
g3572
sI34
g908
sI508
(dp3779
g568
g593
sg570
g571
(g573
S'\x00\x00\x00\x00\x008?@'
tRp3780
sg575
g571
(g573
S'\x85\xebQ\xb8\xde\xc1`@'
tRp3781
sg577
I9223372036854775807
ssI218
g2295
ssI500
(dp3782
I496
g3764
sI186
g2083
sI506
(dp3783
g568
g579
sg570
g571
(g573
S'\x00\x00\x00\x00\x008/@'
tRp3784
sg575
g571
(g573
S'G\xe1z\x14\xee\xc5Q@'
tRp3785
sg577
I9223372036854775807
sssI501
(dp3786
I0
g582
sI451
g3587
sI510
(dp3787
g568
g579
sg570
g571
(g573
S'\x00\x00\x00\x00\x008?@'
tRp3788
sg575
g571
(g573
S'\x90\xc2\xf5(\xdc\x0bR@'
tRp3789
sg577
I9223372036854775807
sssI502
(dp3790
I400
g3332
sI521
(dp3791
g568
g579
sg570
g571
(g573
S'\x00\x00\x00\x00\x008O@'
tRp3792
sg575
g571
(g573
S'\x1e\x85\xebQ\xb8\x97R@'
tRp3793
sg577
I9223372036854775807
ssI487
g3728
ssI503
(dp3794
I402
g3343
sI463
g3635
sI382
g3236
sI111
g1525
ssI504
(dp3795
I418
g3422
sI453
g3592
sI541
(dp3796
g568
g579
sg570
g571
(g573
S'\x00\x00\x00\x00\x008O@'
tRp3797
sg575
g571
(g573
S'\x1e\x85\xebQ\xb8\x97R@'
tRp3798
sg577
I9223372036854775807
sssI505
(dp3799
I509
(dp3800
g568
g593
sg570
g571
(g573
S'\x00\x00\x00\x00\x008/@'
tRp3801
sg575
g571
(g573
S'\xc2\xf5(\\\xef\x80`@'
tRp3802
sg577
I9223372036854775807
ssI269
g2631
sI191
g2109
ssI506
(dp3803
I192
g2119
sI3
g613
sI500
g3783
ssI507
(dp3804
I497
g3771
sI4
g626
sI516
(dp3805
g568
g579
sg570
g571
(g573
S'\x00\x00\x00\x00\x008?@'
tRp3806
sg575
g571
(g573
S'\x90\xc2\xf5(\xdc\x0bR@'
tRp3807
sg577
I9223372036854775807
ssI407
g3360
ssI508
(dp3808
I499
g3779
sI518
(dp3809
g568
g593
sg570
g571
(g573
S'\x00\x00\x00\x00\x008?@'
tRp3810
sg575
g571
(g573
S'\x85\xebQ\xb8\xde\xc1`@'
tRp3811
sg577
I9223372036854775807
ssI454
g3599
ssI509
(dp3812
I505
g3800
sI194
g2136
sI513
(dp3813
g568
g593
sg570
g571
(g573
S'\x00\x00\x00\x00\x008/@'
tRp3814
sg575
g571
(g573
S'\xc2\xf5(\\\xef\x80`@'
tRp3815
sg577
I9223372036854775807
sssI510
(dp3816
I258
g2563
sI501
g3787
sI6
g649
sI511
(dp3817
g568
g579
sg570
g571
(g573
S'\x00\x00\x00\x00\x008\x1f@'
tRp3818
sg575
g571
(g573
S'\xa4p=\n\xf7\xa2Q@'
tRp3819
sg577
I9223372036854775807
sssI511
(dp3820
I352
g3086
sI514
(dp3821
g568
g579
sg570
g571
(g573
S'\x00\x00\x00\x00\x008\x1f@'
tRp3822
sg575
g571
(g573
S'\xa4p=\n\xf7\xa2Q@'
tRp3823
sg577
I9223372036854775807
ssI510
g3817
ssI512
(dp3824
I411
g3382
sI532
(dp3825
g568
g579
sg570
g571
(g573
S'\x00\x00\x00\x00\x008O@'
tRp3826
sg575
g571
(g573
S'\x1e\x85\xebQ\xb8\x97R@'
tRp3827
sg577
I9223372036854775807
ssI47
g1023
ssI513
(dp3828
I48
g1033
sI201
g2179
sI524
(dp3829
g568
g593
sg570
g571
(g573
S'\x00\x00\x00\x00\x008?@'
tRp3830
sg575
g571
(g573
S'\x85\xebQ\xb8\xde\xc1`@'
tRp3831
sg577
I9223372036854775807
ssI509
g3813
ssI514
(dp3832
I354
g3097
sI519
(dp3833
g568
g579
sg570
g571
(g573
S'\x00\x00\x00\x00\x008/@'
tRp3834
sg575
g571
(g573
S'G\xe1z\x14\xee\xc5Q@'
tRp3835
sg577
I9223372036854775807
ssI511
g3821
ssI515
(dp3836
I520
(dp3837
g568
g579
sg570
g571
(g573
S'\x00\x00\x00\x00\x008/@'
tRp3838
sg575
g571
(g573
S'G\xe1z\x14\xee\xc5Q@'
tRp3839
sg577
I9223372036854775807
ssI498
g3775
sI203
g2193
ssI516
(dp3840
I507
g3805
sI12
g697
sI527
(dp3841
g568
g579
sg570
g571
(g573
S'\x00\x00\x00\x00\x008?@'
tRp3842
sg575
g571
(g573
S'\x90\xc2\xf5(\xdc\x0bR@'
tRp3843
sg577
I9223372036854775807
sssI517
(dp3844
I200
g2175
sI29
g861
sI93
g1381
ssI518
(dp3845
I523
(dp3846
g568
g593
sg570
g571
(g573
S'\x00\x00\x00\x00\x008/@'
tRp3847
sg575
g571
(g573
S'\xc2\xf5(\\\xef\x80`@'
tRp3848
sg577
I9223372036854775807
ssI51
g1057
sI508
g3809
sI206
g2220
ssI519
(dp3849
I16
g743
sI208
g2228
sI514
g3833
ssI520
(dp3850
I209
g2235
sI515
g3837
sI260
g2574
sI526
(dp3851
g568
g579
sg570
g571
(g573
S'\x00\x00\x00\x00\x008/@'
tRp3852
sg575
g571
(g573
S'G\xe1z\x14\xee\xc5Q@'
tRp3853
sg577
I9223372036854775807
sssI521
(dp3854
I530
(dp3855
g568
g579
sg570
g571
(g573
S'\x00\x00\x00\x00\x008?@'
tRp3856
sg575
g571
(g573
S'\x90\xc2\xf5(\xdc\x0bR@'
tRp3857
sg577
I9223372036854775807
ssI469
g3665
sI502
g3791
ssI522
(dp3858
I418
g3425
sI53
g1068
sI541
(dp3859
g568
g579
sg570
g571
(g573
S'\x00\x00\x00\x00\x008O@'
tRp3860
sg575
g571
(g573
S'\x1e\x85\xebQ\xb8\x97R@'
tRp3861
sg577
I9223372036854775807
sssI523
(dp3862
I528
(dp3863
g568
g593
sg570
g571
(g573
S'\x00\x00\x00\x00\x008/@'
tRp3864
sg575
g571
(g573
S'\xc2\xf5(\\\xef\x80`@'
tRp3865
sg577
I9223372036854775807
ssI213
g2266
sI518
g3846
ssI524
(dp3866
I472
g3677
sI513
g3829
sI533
(dp3867
g568
g593
sg570
g571
(g573
S'\x00\x00\x00\x00\x008?@'
tRp3868
sg575
g571
(g573
S'\x85\xebQ\xb8\xde\xc1`@'
tRp3869
sg577
I9223372036854775807
sssI525
(dp3870
I2
g603
sI427
g3473
sI215
g2274
ssI526
(dp3871
I216
g2284
sI520
g3851
sI263
g2598
ssI527
(dp3872
I516
g3841
sI20
g771
sI421
g3443
sI543
(dp3873
g568
g579
sg570
g571
(g573
S'\x00\x00\x00\x00\x008O@'
tRp3874
sg575
g571
(g573
S'\x1e\x85\xebQ\xb8\x97R@'
tRp3875
sg577
I9223372036854775807
sssI528
(dp3876
I523
g3863
sI537
(dp3877
g568
g569
sg570
g571
(g573
S'\x00\x00\x00\x00\x008?@'
tRp3878
sg575
g571
(g573
S'\xcd\xcc\xcc\xcc\xcc\xc7i@'
tRp3879
sg577
I9223372036854775807
ssI219
g2302
ssI529
(dp3880
I57
g1102
sI548
(dp3881
g568
g579
sg570
g571
(g573
S'\x00\x00\x00\x00\x008O@'
tRp3882
sg575
g571
(g573
S'\x1e\x85\xebQ\xb8\x97R@'
tRp3883
sg577
I9223372036854775807
ssI425
g3459
ssI530
(dp3884
I224
g2340
sI521
g3855
sI535
(dp3885
g568
g579
sg570
g571
(g573
S'\x00\x00\x00\x00\x008/@'
tRp3886
sg575
g571
(g573
S'G\xe1z\x14\xee\xc5Q@'
tRp3887
sg577
I9223372036854775807
sssI531
(dp3888
I225
g2350
sI466
g3647
sI382
g3230
ssI532
(dp3889
I0
g578
sI512
g3825
sI60
g1135
sI431
g3492
ssI533
(dp3890
I1
g592
sI524
g3867
sI61
g1142
sI485
g3723
ssI534
(dp3891
I41
g975
sI427
g3470
sI229
g2372
ssI535
(dp3892
I530
g3885
sI540
(dp3893
g568
g579
sg570
g571
(g573
S'\x00\x00\x00\x00\x008/@'
tRp3894
sg575
g571
(g573
S'G\xe1z\x14\xee\xc5Q@'
tRp3895
sg577
I9223372036854775807
ssI231
g2395
ssI536
(dp3896
I147
g1792
sI255
g2545
sI167
g1941
ssI537
(dp3897
I528
g3877
sI545
(dp3898
g568
g569
sg570
g571
(g573
S'\x00\x00\x00\x00\x008?@'
tRp3899
sg575
g571
(g573
S'\xcd\xcc\xcc\xcc\xcc\xc7i@'
tRp3900
sg577
I9223372036854775807
ssI490
g3740
ssI538
(dp3901
I97
g1412
sI131
g1677
sI449
g3576
ssI539
(dp3902
I546
(dp3903
g568
g579
sg570
g571
(g573
S'\x00\x00\x00\x00\x008?@'
tRp3904
sg575
g571
(g573
S'\x90\xc2\xf5(\xdc\x0bR@'
tRp3905
sg577
I9223372036854775807
ssI27
g841
sI491
g3750
ssI540
(dp3906
I535
g3893
sI235
g2423
sI47
g1029
ssI541
(dp3907
I504
g3796
sI522
g3859
sI67
g1196
sI5
g639
ssI542
(dp3908
I236
g2433
sI466
g3650
sI148
g1802
sI22
g791
ssI543
(dp3909
I9
g676
sI527
g3873
sI69
g1210
sI441
g3541
ssI544
(dp3910
I392
g3288
sI357
g3112
sI342
g3028
ssI545
(dp3911
I496
g3761
sI537
g3898
sI3
g610
ssI546
(dp3912
I33
g895
sI539
g3903
sI4
g623
sI497
g3768
ssI547
(dp3913
I154
g1847
sI322
g2924
sI351
g3076
ssI548
(dp3914
I529
g3881
sI13
g710
sI70
g1217
sI446
g3558
sssS'adjlist_outer_dict_factory'
p3915
g7
sb.