ccopy_reg
_reconstructor
p1
(cnetworkx.classes.graph
Graph
p2
c__builtin__
object
p3
NtRp4
(dp5
S'adjlist_inner_dict_factory'
p6
c__builtin__
dict
p7
sS'node_dict_factory'
p8
g7
sS'edge_attr_dict_factory'
p9
g7
sS'_node'
p10
(dp11
I0
(dp12
sI1
(dp13
sI2
(dp14
sI3
(dp15
sI4
(dp16
sI5
(dp17
sI6
(dp18
sI7
(dp19
sI8
(dp20
sI9
(dp21
sI10
(dp22
sI11
(dp23
sI12
(dp24
sI13
(dp25
sI14
(dp26
sI15
(dp27
sI16
(dp28
sI17
(dp29
sI18
(dp30
sI19
(dp31
sI20
(dp32
sI21
(dp33
sI22
(dp34
sI23
(dp35
ssS'graph'
p36
(dp37
sS'nodes'
p38
g1
(cnetworkx.classes.reportviews
NodeView
p39
g3
NtRp40
(dp41
S'_nodes'
p42
g11
sbsS'_adj'
p43
(dp44
I0
(dp45
I2
(dp46
S'color'
p47
S'green'
p48
sS'distance'
p49
cnumpy.core.multiarray
scalar
p50
(cnumpy
dtype
p51
(S'f8'
I0
I1
tRp52
(I3
S'<'
NNNI-1
I-1
I0
tbS'\x00\x00\x00\x00\x008o@'
tRp53
sS'capacity'
p54
I162
sS'duedate'
p55
I9223372036854775807
ssI11
(dp56
g47
g48
sg49
g50
(g52
S'\x00\x00\x00\x00\x008o@'
tRp57
sg54
I162
sg55
I9223372036854775807
ssI14
(dp58
g47
S'black'
p59
sg49
g50
(g52
S'\x00\x00\x00\x00\x008o@'
tRp60
sg54
I87
sg55
I9223372036854775807
sssI1
(dp61
I16
(dp62
g47
g48
sg49
g50
(g52
S'\x00\x00\x00\x00\x008o@'
tRp63
sg54
I162
sg55
I9223372036854775807
ssI3
(dp64
g47
g48
sg49
g50
(g52
S'\x00\x00\x00\x00\x008o@'
tRp65
sg54
I162
sg55
I9223372036854775807
ssI12
(dp66
g47
g48
sg49
g50
(g52
S'\x00\x00\x00\x00\x008o@'
tRp67
sg54
I162
sg55
I9223372036854775807
sssI2
(dp68
I0
g46
sI17
(dp69
g47
g48
sg49
g50
(g52
S'\x00\x00\x00\x00\x008o@'
tRp70
sg54
I162
sg55
I9223372036854775807
ssI4
(dp71
g47
g59
sg49
g50
(g52
S'\x00\x00\x00\x00\x008o@'
tRp72
sg54
I87
sg55
I9223372036854775807
ssI13
(dp73
g47
g59
sg49
g50
(g52
S'\x00\x00\x00\x00\x008o@'
tRp74
sg54
I87
sg55
I9223372036854775807
sssI3
(dp75
I1
g64
sI7
(dp76
g47
g59
sg49
g50
(g52
S'\x00\x00\x00\x00\x008_@'
tRp77
sg54
I78
sg55
I9223372036854775807
ssI5
(dp78
g47
g48
sg49
g50
(g52
S'\x00\x00\x00\x00\x008_@'
tRp79
sg54
I146
sg55
I9223372036854775807
ssI15
(dp80
g47
g48
sg49
g50
(g52
S'\x00\x00\x00\x00\x008o@'
tRp81
sg54
I162
sg55
I9223372036854775807
sssI4
(dp82
I16
(dp83
g47
g48
sg49
g50
(g52
S'\x00\x00\x00\x00\x008o@'
tRp84
sg54
I162
sg55
I9223372036854775807
ssI2
g71
sI20
(dp85
g47
g48
sg49
g50
(g52
S'\x00\x00\x00\x00\x008o@'
tRp86
sg54
I162
sg55
I9223372036854775807
sssI5
(dp87
I8
(dp88
g47
g59
sg49
g50
(g52
S'\x00\x00\x00\x00\x008_@'
tRp89
sg54
I78
sg55
I9223372036854775807
ssI3
g78
sI6
(dp90
g47
g48
sg49
g50
(g52
S'\x00\x00\x00\x00\x008_@'
tRp91
sg54
I146
sg55
I9223372036854775807
sssI6
(dp92
I9
(dp93
g47
g48
sg49
g50
(g52
S'\x00\x00\x00\x00\x008_@'
tRp94
sg54
I146
sg55
I9223372036854775807
ssI18
(dp95
g47
g48
sg49
g50
(g52
S'\x00\x00\x00\x00\x008o@'
tRp96
sg54
I162
sg55
I9223372036854775807
ssI5
g90
ssI7
(dp97
I19
(dp98
g47
g59
sg49
g50
(g52
S'\x00\x00\x00\x00\x008_@'
tRp99
sg54
I78
sg55
I9223372036854775807
ssI8
(dp100
g47
g59
sg49
g50
(g52
S'\x00\x00\x00\x00\x008_@'
tRp101
sg54
I78
sg55
I9223372036854775807
ssI3
g76
ssI8
(dp102
I9
(dp103
g47
g59
sg49
g50
(g52
S'\x00\x00\x00\x00\x008_@'
tRp104
sg54
I78
sg55
I9223372036854775807
ssI21
(dp105
g47
g59
sg49
g50
(g52
S'\x00\x00\x00\x00\x008_@'
tRp106
sg54
I78
sg55
I9223372036854775807
ssI5
g88
sI7
g100
ssI9
(dp107
I8
g103
sI22
(dp108
g47
g48
sg49
g50
(g52
S'\x00\x00\x00\x00\x008_@'
tRp109
sg54
I146
sg55
I9223372036854775807
ssI6
g93
ssI10
(dp110
I11
(dp111
g47
g48
sg49
g50
(g52
S'\x00\x00\x00\x00\x008\x7f@'
tRp112
sg54
I194
sg55
I9223372036854775807
ssI12
(dp113
g47
g48
sg49
g50
(g52
S'\x00\x00\x00\x00\x008\x7f@'
tRp114
sg54
I194
sg55
I9223372036854775807
sssI11
(dp115
I0
g56
sI10
g111
sI13
(dp116
g47
g48
sg49
g50
(g52
S'\x00\x00\x00\x00\x008o@'
tRp117
sg54
I162
sg55
I9223372036854775807
sssI12
(dp118
I1
g66
sI10
g113
sI15
(dp119
g47
g48
sg49
g50
(g52
S'\x00\x00\x00\x00\x008o@'
tRp120
sg54
I162
sg55
I9223372036854775807
sssI13
(dp121
I16
(dp122
g47
g48
sg49
g50
(g52
S'\x00\x00\x00\x00\x008o@'
tRp123
sg54
I162
sg55
I9223372036854775807
ssI2
g73
sI11
g116
ssI14
(dp124
I0
g58
sI17
(dp125
g47
g59
sg49
g50
(g52
S'\x00\x00\x00\x00\x008o@'
tRp126
sg54
I87
sg55
I9223372036854775807
sssI15
(dp127
I18
(dp128
g47
g48
sg49
g50
(g52
S'\x00\x00\x00\x00\x008o@'
tRp129
sg54
I162
sg55
I9223372036854775807
ssI3
g80
sI12
g119
ssI16
(dp130
I1
g62
sI19
(dp131
g47
g48
sg49
g50
(g52
S'\x00\x00\x00\x00\x008o@'
tRp132
sg54
I162
sg55
I9223372036854775807
ssI4
g83
sI13
g122
ssI17
(dp133
I2
g69
sI20
(dp134
g47
g48
sg49
g50
(g52
S'\x00\x00\x00\x00\x008o@'
tRp135
sg54
I162
sg55
I9223372036854775807
ssI14
g125
ssI18
(dp136
I6
g95
sI15
g128
ssI19
(dp137
I16
g131
sI21
(dp138
g47
g48
sg49
g50
(g52
S'\x00\x00\x00\x00\x008_@'
tRp139
sg54
I146
sg55
I9223372036854775807
ssI7
g98
ssI20
(dp140
I17
g134
sI4
g85
sI23
(dp141
g47
g48
sg49
g50
(g52
S'\x00\x00\x00\x00\x008\x7f@'
tRp142
sg54
I194
sg55
I9223372036854775807
sssI21
(dp143
I8
g105
sI19
g138
sI22
(dp144
g47
g48
sg49
g50
(g52
S'\x00\x00\x00\x00\x008_@'
tRp145
sg54
I146
sg55
I9223372036854775807
sssI22
(dp146
I9
g108
sI21
g144
sI23
(dp147
g47
g48
sg49
g50
(g52
S'\x00\x00\x00\x00\x008\x7f@'
tRp148
sg54
I194
sg55
I9223372036854775807
sssI23
(dp149
I20
g141
sI22
g147
sssS'adjlist_outer_dict_factory'
p150
g7
sb.