ccopy_reg
_reconstructor
p1
(cnetworkx.classes.graph
Graph
p2
c__builtin__
object
p3
NtRp4
(dp5
S'adjlist_inner_dict_factory'
p6
c__builtin__
dict
p7
sS'node_dict_factory'
p8
g7
sS'edge_attr_dict_factory'
p9
g7
sS'_node'
p10
(dp11
I0
(dp12
sI1
(dp13
sI2
(dp14
sI3
(dp15
sI4
(dp16
sI5
(dp17
sI6
(dp18
sI7
(dp19
sI8
(dp20
sI9
(dp21
sI10
(dp22
sI11
(dp23
sI12
(dp24
sI13
(dp25
sI14
(dp26
sI15
(dp27
sI16
(dp28
sI17
(dp29
sI18
(dp30
sI19
(dp31
sI20
(dp32
sI21
(dp33
sI22
(dp34
sI23
(dp35
sI24
(dp36
sI25
(dp37
sI26
(dp38
sI27
(dp39
sI28
(dp40
sI29
(dp41
sI30
(dp42
sI31
(dp43
sI32
(dp44
sI33
(dp45
sI34
(dp46
sI35
(dp47
sI36
(dp48
sI37
(dp49
sI38
(dp50
sI39
(dp51
sI40
(dp52
sI41
(dp53
sI42
(dp54
sI43
(dp55
sI44
(dp56
sI45
(dp57
sI46
(dp58
sI47
(dp59
sI48
(dp60
sI49
(dp61
sI50
(dp62
sI51
(dp63
sI52
(dp64
sI53
(dp65
sI54
(dp66
sI55
(dp67
sI56
(dp68
sI57
(dp69
sI58
(dp70
sI59
(dp71
sI60
(dp72
sI61
(dp73
sI62
(dp74
sI63
(dp75
sI64
(dp76
sI65
(dp77
sI66
(dp78
sI67
(dp79
sI68
(dp80
sI69
(dp81
sI70
(dp82
sI71
(dp83
sI72
(dp84
sI73
(dp85
sI74
(dp86
sI75
(dp87
sI76
(dp88
sI77
(dp89
sI78
(dp90
sI79
(dp91
sI80
(dp92
sI81
(dp93
ssS'graph'
p94
(dp95
sS'nodes'
p96
g1
(cnetworkx.classes.reportviews
NodeView
p97
g3
NtRp98
(dp99
S'_nodes'
p100
g11
sbsS'_adj'
p101
(dp102
I0
(dp103
I42
(dp104
S'color'
p105
S'black'
p106
sS'distance'
p107
cnumpy.core.multiarray
scalar
p108
(cnumpy
dtype
p109
(S'f8'
I0
I1
tRp110
(I3
S'<'
NNNI-1
I-1
I0
tbS'\x00\x00\x00\x00\x008o@'
tRp111
sS'capacity'
p112
I87
sS'duedate'
p113
I9223372036854775807
ssI3
(dp114
g105
S'blue'
p115
sg107
g108
(g110
S'\x00\x00\x00\x00\x008o@'
tRp116
sg112
I249
sg113
I9223372036854775807
ssI38
(dp117
g105
g115
sg107
g108
(g110
S'\x00\x00\x00\x00\x008o@'
tRp118
sg112
I249
sg113
I9223372036854775807
sssI1
(dp119
I41
(dp120
g105
g106
sg107
g108
(g110
S'\x00\x00\x00\x00\x008O@'
tRp121
sg112
I74
sg113
I9223372036854775807
ssI51
(dp122
g105
S'green'
p123
sg107
g108
(g110
S'\x00\x00\x00\x00\x008O@'
tRp124
sg112
I138
sg113
I9223372036854775807
ssI31
(dp125
g105
g123
sg107
g108
(g110
S'\x00\x00\x00\x00\x008O@'
tRp126
sg112
I138
sg113
I9223372036854775807
sssI2
(dp127
I75
(dp128
g105
g106
sg107
g108
(g110
S'\x00\x00\x00\x00\x008O@'
tRp129
sg112
I74
sg113
I9223372036854775807
ssI61
(dp130
g105
g115
sg107
g108
(g110
S'\x00\x00\x00\x00\x008O@'
tRp131
sg112
I212
sg113
I9223372036854775807
ssI71
(dp132
g105
g115
sg107
g108
(g110
S'\x00\x00\x00\x00\x008O@'
tRp133
sg112
I212
sg113
I9223372036854775807
sssI3
(dp134
I0
g114
sI40
(dp135
g105
g123
sg107
g108
(g110
S'\x00\x00\x00\x00\x008o@'
tRp136
sg112
I162
sg113
I9223372036854775807
ssI46
(dp137
g105
g115
sg107
g108
(g110
S'\x00\x00\x00\x00\x008o@'
tRp138
sg112
I249
sg113
I9223372036854775807
ssI7
(dp139
g105
g115
sg107
g108
(g110
S'\x00\x00\x00\x00\x008o@'
tRp140
sg112
I249
sg113
I9223372036854775807
sssI4
(dp141
I25
(dp142
g105
g106
sg107
g108
(g110
S'\x00\x00\x00\x00\x008_@'
tRp143
sg112
I78
sg113
I9223372036854775807
ssI6
(dp144
g105
g123
sg107
g108
(g110
S'\x00\x00\x00\x00\x008_@'
tRp145
sg112
I146
sg113
I9223372036854775807
ssI70
(dp146
g105
g106
sg107
g108
(g110
S'\x00\x00\x00\x00\x008_@'
tRp147
sg112
I78
sg113
I9223372036854775807
sssI5
(dp148
I8
(dp149
g105
g106
sg107
g108
(g110
S'\x00\x00\x00\x00\x008O@'
tRp150
sg112
I74
sg113
I9223372036854775807
ssI58
(dp151
g105
g106
sg107
g108
(g110
S'\x00\x00\x00\x00\x008O@'
tRp152
sg112
I74
sg113
I9223372036854775807
ssI36
(dp153
g105
g106
sg107
g108
(g110
S'\x00\x00\x00\x00\x008O@'
tRp154
sg112
I74
sg113
I9223372036854775807
ssI30
(dp155
g105
g106
sg107
g108
(g110
S'\x00\x00\x00\x00\x008O@'
tRp156
sg112
I74
sg113
I9223372036854775807
sssI6
(dp157
I9
(dp158
g105
g123
sg107
g108
(g110
S'\x00\x00\x00\x00\x008_@'
tRp159
sg112
I146
sg113
I9223372036854775807
ssI66
(dp160
g105
g106
sg107
g108
(g110
S'\x00\x00\x00\x00\x008_@'
tRp161
sg112
I78
sg113
I9223372036854775807
ssI19
(dp162
g105
g106
sg107
g108
(g110
S'\x00\x00\x00\x00\x008_@'
tRp163
sg112
I78
sg113
I9223372036854775807
ssI4
g144
ssI7
(dp164
I3
g139
sI28
(dp165
g105
g123
sg107
g108
(g110
S'\x00\x00\x00\x00\x008_@'
tRp166
sg112
I146
sg113
I9223372036854775807
ssI45
(dp167
g105
g123
sg107
g108
(g110
S'\x00\x00\x00\x00\x008o@'
tRp168
sg112
I162
sg113
I9223372036854775807
ssI63
(dp169
g105
g115
sg107
g108
(g110
S'\x00\x00\x00\x00\x008_@'
tRp170
sg112
I224
sg113
I9223372036854775807
sssI8
(dp171
I39
(dp172
g105
g106
sg107
g108
(g110
S'\x00\x00\x00\x00\x008O@'
tRp173
sg112
I74
sg113
I9223372036854775807
ssI27
(dp174
g105
g106
sg107
g108
(g110
S'\x00\x00\x00\x00\x008O@'
tRp175
sg112
I74
sg113
I9223372036854775807
ssI5
g149
sI79
(dp176
g105
g106
sg107
g108
(g110
S'\x00\x00\x00\x00\x008O@'
tRp177
sg112
I74
sg113
I9223372036854775807
sssI9
(dp178
I11
(dp179
g105
g115
sg107
g108
(g110
S'\x00\x00\x00\x00\x008_@'
tRp180
sg112
I224
sg113
I9223372036854775807
ssI69
(dp181
g105
g115
sg107
g108
(g110
S'\x00\x00\x00\x00\x008_@'
tRp182
sg112
I224
sg113
I9223372036854775807
ssI6
g158
sI31
(dp183
g105
g123
sg107
g108
(g110
S'\x00\x00\x00\x00\x008_@'
tRp184
sg112
I146
sg113
I9223372036854775807
sssI10
(dp185
I48
(dp186
g105
g123
sg107
g108
(g110
S'\x00\x00\x00\x00\x008O@'
tRp187
sg112
I138
sg113
I9223372036854775807
ssI72
(dp188
g105
g115
sg107
g108
(g110
S'\x00\x00\x00\x00\x008O@'
tRp189
sg112
I212
sg113
I9223372036854775807
ssI61
(dp190
g105
g115
sg107
g108
(g110
S'\x00\x00\x00\x00\x008O@'
tRp191
sg112
I212
sg113
I9223372036854775807
sssI11
(dp192
I9
g179
sI26
(dp193
g105
g106
sg107
g108
(g110
S'\x00\x00\x00\x00\x008_@'
tRp194
sg112
I78
sg113
I9223372036854775807
ssI62
(dp195
g105
g106
sg107
g108
(g110
S'\x00\x00\x00\x00\x008O@'
tRp196
sg112
I74
sg113
I9223372036854775807
ssI81
(dp197
g105
g115
sg107
g108
(g110
S'\x00\x00\x00\x00\x008O@'
tRp198
sg112
I212
sg113
I9223372036854775807
sssI12
(dp199
I15
(dp200
g105
g123
sg107
g108
(g110
S'\x00\x00\x00\x00\x008_@'
tRp201
sg112
I146
sg113
I9223372036854775807
ssI34
(dp202
g105
g123
sg107
g108
(g110
S'\x00\x00\x00\x00\x008_@'
tRp203
sg112
I146
sg113
I9223372036854775807
ssI71
(dp204
g105
g115
sg107
g108
(g110
S'\x00\x00\x00\x00\x008_@'
tRp205
sg112
I224
sg113
I9223372036854775807
ssI63
(dp206
g105
g115
sg107
g108
(g110
S'\x00\x00\x00\x00\x008_@'
tRp207
sg112
I224
sg113
I9223372036854775807
sssI13
(dp208
I41
(dp209
g105
g106
sg107
g108
(g110
S'\x00\x00\x00\x00\x008O@'
tRp210
sg112
I74
sg113
I9223372036854775807
ssI51
(dp211
g105
g106
sg107
g108
(g110
S'\x00\x00\x00\x00\x008O@'
tRp212
sg112
I74
sg113
I9223372036854775807
ssI54
(dp213
g105
g106
sg107
g108
(g110
S'\x00\x00\x00\x00\x008O@'
tRp214
sg112
I74
sg113
I9223372036854775807
sssI14
(dp215
I81
(dp216
g105
g123
sg107
g108
(g110
S'\x00\x00\x00\x00\x008O@'
tRp217
sg112
I138
sg113
I9223372036854775807
ssI74
(dp218
g105
g123
sg107
g108
(g110
S'\x00\x00\x00\x00\x008_@'
tRp219
sg112
I146
sg113
I9223372036854775807
ssI68
(dp220
g105
g123
sg107
g108
(g110
S'\x00\x00\x00\x00\x008O@'
tRp221
sg112
I138
sg113
I9223372036854775807
ssI18
(dp222
g105
g123
sg107
g108
(g110
S'\x00\x00\x00\x00\x008o@'
tRp223
sg112
I162
sg113
I9223372036854775807
sssI15
(dp224
I56
(dp225
g105
g123
sg107
g108
(g110
S'\x00\x00\x00\x00\x008O@'
tRp226
sg112
I138
sg113
I9223372036854775807
ssI65
(dp227
g105
g106
sg107
g108
(g110
S'\x00\x00\x00\x00\x008O@'
tRp228
sg112
I74
sg113
I9223372036854775807
ssI75
(dp229
g105
g106
sg107
g108
(g110
S'\x00\x00\x00\x00\x008_@'
tRp230
sg112
I78
sg113
I9223372036854775807
ssI12
g200
ssI16
(dp231
I58
(dp232
g105
g123
sg107
g108
(g110
S'\x00\x00\x00\x00\x008O@'
tRp233
sg112
I138
sg113
I9223372036854775807
ssI30
(dp234
g105
g106
sg107
g108
(g110
S'\x00\x00\x00\x00\x008O@'
tRp235
sg112
I74
sg113
I9223372036854775807
ssI55
(dp236
g105
g123
sg107
g108
(g110
S'\x00\x00\x00\x00\x008O@'
tRp237
sg112
I138
sg113
I9223372036854775807
sssI17
(dp238
I56
(dp239
g105
g123
sg107
g108
(g110
S'\x00\x00\x00\x00\x008O@'
tRp240
sg112
I138
sg113
I9223372036854775807
ssI67
(dp241
g105
g123
sg107
g108
(g110
S'\x00\x00\x00\x00\x008O@'
tRp242
sg112
I138
sg113
I9223372036854775807
ssI78
(dp243
g105
g123
sg107
g108
(g110
S'\x00\x00\x00\x00\x008_@'
tRp244
sg112
I146
sg113
I9223372036854775807
sssI18
(dp245
I60
(dp246
g105
g123
sg107
g108
(g110
S'\x00\x00\x00\x00\x008o@'
tRp247
sg112
I162
sg113
I9223372036854775807
ssI20
(dp248
g105
g123
sg107
g108
(g110
S'\x00\x00\x00\x00\x008o@'
tRp249
sg112
I162
sg113
I9223372036854775807
ssI14
g222
sI55
(dp250
g105
g123
sg107
g108
(g110
S'\x00\x00\x00\x00\x008o@'
tRp251
sg112
I162
sg113
I9223372036854775807
sssI19
(dp252
I49
(dp253
g105
g115
sg107
g108
(g110
S'\x00\x00\x00\x00\x008_@'
tRp254
sg112
I224
sg113
I9223372036854775807
ssI25
(dp255
g105
g106
sg107
g108
(g110
S'\x00\x00\x00\x00\x008_@'
tRp256
sg112
I78
sg113
I9223372036854775807
ssI6
g162
sI31
(dp257
g105
g115
sg107
g108
(g110
S'\x00\x00\x00\x00\x008_@'
tRp258
sg112
I224
sg113
I9223372036854775807
sssI20
(dp259
I64
(dp260
g105
g123
sg107
g108
(g110
S'\x00\x00\x00\x00\x008o@'
tRp261
sg112
I162
sg113
I9223372036854775807
ssI18
g248
sI59
(dp262
g105
g123
sg107
g108
(g110
S'\x00\x00\x00\x00\x008o@'
tRp263
sg112
I162
sg113
I9223372036854775807
sssI21
(dp264
I72
(dp265
g105
g106
sg107
g108
(g110
S'\x00\x00\x00\x00\x008O@'
tRp266
sg112
I74
sg113
I9223372036854775807
ssI75
(dp267
g105
g106
sg107
g108
(g110
S'\x00\x00\x00\x00\x008O@'
tRp268
sg112
I74
sg113
I9223372036854775807
ssI61
(dp269
g105
g106
sg107
g108
(g110
S'\x00\x00\x00\x00\x008O@'
tRp270
sg112
I74
sg113
I9223372036854775807
sssI22
(dp271
I76
(dp272
g105
g115
sg107
g108
(g110
S'\x00\x00\x00\x00\x008O@'
tRp273
sg112
I212
sg113
I9223372036854775807
ssI81
(dp274
g105
g115
sg107
g108
(g110
S'\x00\x00\x00\x00\x008O@'
tRp275
sg112
I212
sg113
I9223372036854775807
ssI68
(dp276
g105
g106
sg107
g108
(g110
S'\x00\x00\x00\x00\x008O@'
tRp277
sg112
I74
sg113
I9223372036854775807
ssI62
(dp278
g105
g106
sg107
g108
(g110
S'\x00\x00\x00\x00\x008O@'
tRp279
sg112
I74
sg113
I9223372036854775807
sssI23
(dp280
I56
(dp281
g105
g106
sg107
g108
(g110
S'\x00\x00\x00\x00\x008O@'
tRp282
sg112
I74
sg113
I9223372036854775807
ssI65
(dp283
g105
g106
sg107
g108
(g110
S'\x00\x00\x00\x00\x008O@'
tRp284
sg112
I74
sg113
I9223372036854775807
ssI67
(dp285
g105
g106
sg107
g108
(g110
S'\x00\x00\x00\x00\x008O@'
tRp286
sg112
I74
sg113
I9223372036854775807
ssI79
(dp287
g105
g106
sg107
g108
(g110
S'\x00\x00\x00\x00\x008O@'
tRp288
sg112
I74
sg113
I9223372036854775807
sssI24
(dp289
I41
(dp290
g105
g106
sg107
g108
(g110
S'\x00\x00\x00\x00\x008O@'
tRp291
sg112
I74
sg113
I9223372036854775807
ssI54
(dp292
g105
g106
sg107
g108
(g110
S'\x00\x00\x00\x00\x008O@'
tRp293
sg112
I74
sg113
I9223372036854775807
ssI33
(dp294
g105
g106
sg107
g108
(g110
S'\x00\x00\x00\x00\x008O@'
tRp295
sg112
I74
sg113
I9223372036854775807
sssI25
(dp296
I19
g255
sI4
g142
sI47
(dp297
g105
g106
sg107
g108
(g110
S'\x00\x00\x00\x00\x008_@'
tRp298
sg112
I78
sg113
I9223372036854775807
sssI26
(dp299
I80
(dp300
g105
g106
sg107
g108
(g110
S'\x00\x00\x00\x00\x008_@'
tRp301
sg112
I78
sg113
I9223372036854775807
ssI74
(dp302
g105
g106
sg107
g108
(g110
S'\x00\x00\x00\x00\x008_@'
tRp303
sg112
I78
sg113
I9223372036854775807
ssI11
g193
sI69
(dp304
g105
g106
sg107
g108
(g110
S'\x00\x00\x00\x00\x008_@'
tRp305
sg112
I78
sg113
I9223372036854775807
sssI27
(dp306
I8
g174
sI58
(dp307
g105
g123
sg107
g108
(g110
S'\x00\x00\x00\x00\x008O@'
tRp308
sg112
I138
sg113
I9223372036854775807
ssI59
(dp309
g105
g123
sg107
g108
(g110
S'\x00\x00\x00\x00\x008O@'
tRp310
sg112
I138
sg113
I9223372036854775807
sssI28
(dp311
I32
(dp312
g105
g106
sg107
g108
(g110
S'\x00\x00\x00\x00\x008_@'
tRp313
sg112
I78
sg113
I9223372036854775807
ssI50
(dp314
g105
g123
sg107
g108
(g110
S'\x00\x00\x00\x00\x008_@'
tRp315
sg112
I146
sg113
I9223372036854775807
ssI7
g165
ssI29
(dp316
I34
(dp317
g105
g123
sg107
g108
(g110
S'\x00\x00\x00\x00\x008O@'
tRp318
sg112
I138
sg113
I9223372036854775807
ssI30
(dp319
g105
g106
sg107
g108
(g110
S'\x00\x00\x00\x00\x008O@'
tRp320
sg112
I74
sg113
I9223372036854775807
ssI55
(dp321
g105
g123
sg107
g108
(g110
S'\x00\x00\x00\x00\x008O@'
tRp322
sg112
I138
sg113
I9223372036854775807
sssI30
(dp323
I16
g234
sI5
g155
sI77
(dp324
g105
g106
sg107
g108
(g110
S'\x00\x00\x00\x00\x008O@'
tRp325
sg112
I74
sg113
I9223372036854775807
ssI29
g319
ssI31
(dp326
I1
g125
sI19
g257
sI73
(dp327
g105
g115
sg107
g108
(g110
S'\x00\x00\x00\x00\x008O@'
tRp328
sg112
I212
sg113
I9223372036854775807
ssI9
g183
ssI32
(dp329
I52
(dp330
g105
g106
sg107
g108
(g110
S'\x00\x00\x00\x00\x008_@'
tRp331
sg112
I78
sg113
I9223372036854775807
ssI34
(dp332
g105
g106
sg107
g108
(g110
S'\x00\x00\x00\x00\x008_@'
tRp333
sg112
I78
sg113
I9223372036854775807
ssI28
g312
sI63
(dp334
g105
g106
sg107
g108
(g110
S'\x00\x00\x00\x00\x008_@'
tRp335
sg112
I78
sg113
I9223372036854775807
sssI33
(dp336
I24
g294
sI73
(dp337
g105
g115
sg107
g108
(g110
S'\x00\x00\x00\x00\x008O@'
tRp338
sg112
I212
sg113
I9223372036854775807
ssI76
(dp339
g105
g115
sg107
g108
(g110
S'\x00\x00\x00\x00\x008O@'
tRp340
sg112
I212
sg113
I9223372036854775807
ssI62
(dp341
g105
g106
sg107
g108
(g110
S'\x00\x00\x00\x00\x008O@'
tRp342
sg112
I74
sg113
I9223372036854775807
sssI34
(dp343
I32
g332
sI12
g202
sI29
g317
sI77
(dp344
g105
g106
sg107
g108
(g110
S'\x00\x00\x00\x00\x008O@'
tRp345
sg112
I74
sg113
I9223372036854775807
sssI35
(dp346
I76
(dp347
g105
g106
sg107
g108
(g110
S'\x00\x00\x00\x00\x008O@'
tRp348
sg112
I74
sg113
I9223372036854775807
ssI57
(dp349
g105
g123
sg107
g108
(g110
S'\x00\x00\x00\x00\x008_@'
tRp350
sg112
I146
sg113
I9223372036854775807
ssI68
(dp351
g105
g123
sg107
g108
(g110
S'\x00\x00\x00\x00\x008O@'
tRp352
sg112
I138
sg113
I9223372036854775807
sssI36
(dp353
I65
(dp354
g105
g106
sg107
g108
(g110
S'\x00\x00\x00\x00\x008O@'
tRp355
sg112
I74
sg113
I9223372036854775807
ssI79
(dp356
g105
g106
sg107
g108
(g110
S'\x00\x00\x00\x00\x008O@'
tRp357
sg112
I74
sg113
I9223372036854775807
ssI5
g153
sI77
(dp358
g105
g106
sg107
g108
(g110
S'\x00\x00\x00\x00\x008O@'
tRp359
sg112
I74
sg113
I9223372036854775807
sssI37
(dp360
I39
(dp361
g105
g123
sg107
g108
(g110
S'\x00\x00\x00\x00\x008O@'
tRp362
sg112
I138
sg113
I9223372036854775807
ssI67
(dp363
g105
g123
sg107
g108
(g110
S'\x00\x00\x00\x00\x008O@'
tRp364
sg112
I138
sg113
I9223372036854775807
ssI79
(dp365
g105
g106
sg107
g108
(g110
S'\x00\x00\x00\x00\x008O@'
tRp366
sg112
I74
sg113
I9223372036854775807
sssI38
(dp367
I0
g117
sI40
(dp368
g105
g123
sg107
g108
(g110
S'\x00\x00\x00\x00\x008o@'
tRp369
sg112
I162
sg113
I9223372036854775807
sssI39
(dp370
I8
g172
sI59
(dp371
g105
g123
sg107
g108
(g110
S'\x00\x00\x00\x00\x008O@'
tRp372
sg112
I138
sg113
I9223372036854775807
ssI37
g361
ssI40
(dp373
I3
g135
sI45
(dp374
g105
g123
sg107
g108
(g110
S'\x00\x00\x00\x00\x008o@'
tRp375
sg112
I162
sg113
I9223372036854775807
ssI38
g368
ssI41
(dp376
I24
g290
sI1
g120
sI13
g209
sI73
(dp377
g105
g106
sg107
g108
(g110
S'\x00\x00\x00\x00\x008O@'
tRp378
sg112
I74
sg113
I9223372036854775807
sssI42
(dp379
I0
g104
sI44
(dp380
g105
g123
sg107
g108
(g110
S'\x00\x00\x00\x00\x008_@'
tRp381
sg112
I146
sg113
I9223372036854775807
ssI70
(dp382
g105
g106
sg107
g108
(g110
S'\x00\x00\x00\x00\x008_@'
tRp383
sg112
I78
sg113
I9223372036854775807
sssI43
(dp384
I48
(dp385
g105
g123
sg107
g108
(g110
S'\x00\x00\x00\x00\x008O@'
tRp386
sg112
I138
sg113
I9223372036854775807
ssI61
(dp387
g105
g106
sg107
g108
(g110
S'\x00\x00\x00\x00\x008O@'
tRp388
sg112
I74
sg113
I9223372036854775807
ssI71
(dp389
g105
g123
sg107
g108
(g110
S'\x00\x00\x00\x00\x008O@'
tRp390
sg112
I138
sg113
I9223372036854775807
sssI44
(dp391
I42
g380
sI66
(dp392
g105
g106
sg107
g108
(g110
S'\x00\x00\x00\x00\x008_@'
tRp393
sg112
I78
sg113
I9223372036854775807
ssI46
(dp394
g105
g123
sg107
g108
(g110
S'\x00\x00\x00\x00\x008_@'
tRp395
sg112
I146
sg113
I9223372036854775807
sssI45
(dp396
I40
g374
sI48
(dp397
g105
g123
sg107
g108
(g110
S'\x00\x00\x00\x00\x008o@'
tRp398
sg112
I162
sg113
I9223372036854775807
ssI7
g167
ssI46
(dp399
I80
(dp400
g105
g123
sg107
g108
(g110
S'\x00\x00\x00\x00\x008_@'
tRp401
sg112
I146
sg113
I9223372036854775807
ssI3
g137
sI44
g394
sI69
(dp402
g105
g115
sg107
g108
(g110
S'\x00\x00\x00\x00\x008_@'
tRp403
sg112
I224
sg113
I9223372036854775807
sssI47
(dp404
I25
g297
sI49
(dp405
g105
g115
sg107
g108
(g110
S'\x00\x00\x00\x00\x008_@'
tRp406
sg112
I224
sg113
I9223372036854775807
sssI48
(dp407
I10
g186
sI43
g385
sI45
g397
ssI49
(dp408
I51
(dp409
g105
g106
sg107
g108
(g110
S'\x00\x00\x00\x00\x008_@'
tRp410
sg112
I78
sg113
I9223372036854775807
ssI19
g253
sI47
g405
ssI50
(dp411
I80
(dp412
g105
g123
sg107
g108
(g110
S'\x00\x00\x00\x00\x008_@'
tRp413
sg112
I146
sg113
I9223372036854775807
ssI52
(dp414
g105
g123
sg107
g108
(g110
S'\x00\x00\x00\x00\x008_@'
tRp415
sg112
I146
sg113
I9223372036854775807
ssI74
(dp416
g105
g123
sg107
g108
(g110
S'\x00\x00\x00\x00\x008_@'
tRp417
sg112
I146
sg113
I9223372036854775807
ssI28
g314
ssI51
(dp418
I1
g122
sI13
g211
sI49
g409
ssI52
(dp419
I32
g330
sI50
g414
sI55
(dp420
g105
g123
sg107
g108
(g110
S'\x00\x00\x00\x00\x008_@'
tRp421
sg112
I146
sg113
I9223372036854775807
sssI53
(dp422
I72
(dp423
g105
g115
sg107
g108
(g110
S'\x00\x00\x00\x00\x008_@'
tRp424
sg112
I224
sg113
I9223372036854775807
ssI78
(dp425
g105
g123
sg107
g108
(g110
S'\x00\x00\x00\x00\x008_@'
tRp426
sg112
I146
sg113
I9223372036854775807
sssI54
(dp427
I24
g292
sI57
(dp428
g105
g106
sg107
g108
(g110
S'\x00\x00\x00\x00\x008_@'
tRp429
sg112
I78
sg113
I9223372036854775807
ssI13
g213
ssI55
(dp430
I16
g236
sI18
g250
sI52
g420
sI29
g321
ssI56
(dp431
I17
g239
sI23
g281
sI15
g225
ssI57
(dp432
I35
g349
sI60
(dp433
g105
g106
sg107
g108
(g110
S'\x00\x00\x00\x00\x008o@'
tRp434
sg112
I87
sg113
I9223372036854775807
ssI54
g428
ssI58
(dp435
I16
g232
sI27
g307
sI5
g151
ssI59
(dp436
I27
g309
sI20
g262
sI39
g371
ssI60
(dp437
I64
(dp438
g105
g106
sg107
g108
(g110
S'\x00\x00\x00\x00\x008o@'
tRp439
sg112
I87
sg113
I9223372036854775807
ssI57
g433
sI18
g246
ssI61
(dp440
I2
g130
sI43
g387
sI10
g190
sI21
g269
ssI62
(dp441
I33
g341
sI11
g195
sI22
g278
ssI63
(dp442
I32
g334
sI12
g206
sI7
g169
ssI64
(dp443
I60
g438
sI20
g260
ssI65
(dp444
I23
g283
sI36
g354
sI15
g227
ssI66
(dp445
I44
g392
sI70
(dp446
g105
g106
sg107
g108
(g110
S'\x00\x00\x00\x00\x008_@'
tRp447
sg112
I78
sg113
I9223372036854775807
ssI6
g160
sI69
(dp448
g105
g106
sg107
g108
(g110
S'\x00\x00\x00\x00\x008_@'
tRp449
sg112
I78
sg113
I9223372036854775807
sssI67
(dp450
I17
g241
sI37
g363
sI23
g285
ssI68
(dp451
I35
g351
sI22
g276
sI14
g220
ssI69
(dp452
I9
g181
sI26
g304
sI66
g448
sI46
g402
ssI70
(dp453
I42
g382
sI4
g146
sI66
g446
ssI71
(dp454
I2
g132
sI43
g389
sI12
g204
ssI72
(dp455
I10
g188
sI21
g265
sI53
g423
ssI73
(dp456
I33
g337
sI41
g377
sI31
g327
ssI74
(dp457
I26
g302
sI50
g416
sI14
g218
ssI75
(dp458
I2
g128
sI21
g267
sI78
(dp459
g105
g106
sg107
g108
(g110
S'\x00\x00\x00\x00\x008_@'
tRp460
sg112
I78
sg113
I9223372036854775807
ssI15
g229
ssI76
(dp461
I33
g339
sI35
g347
sI22
g272
ssI77
(dp462
I34
g344
sI36
g358
sI30
g324
ssI78
(dp463
I17
g243
sI75
g459
sI53
g425
ssI79
(dp464
I8
g176
sI36
g356
sI37
g365
sI23
g287
ssI80
(dp465
I26
g300
sI50
g412
sI46
g400
ssI81
(dp466
I11
g197
sI22
g274
sI14
g216
sssS'adjlist_outer_dict_factory'
p467
g7
sb.