ccopy_reg
_reconstructor
p1
(cnetworkx.classes.graph
Graph
p2
c__builtin__
object
p3
NtRp4
(dp5
S'adjlist_inner_dict_factory'
p6
c__builtin__
dict
p7
sS'node_dict_factory'
p8
g7
sS'edge_attr_dict_factory'
p9
g7
sS'_node'
p10
(dp11
I0
(dp12
sI1
(dp13
sI2
(dp14
sI3
(dp15
sI4
(dp16
sI5
(dp17
sI6
(dp18
sI7
(dp19
sI8
(dp20
sI9
(dp21
sI10
(dp22
sI11
(dp23
sI12
(dp24
sI13
(dp25
sI14
(dp26
sI15
(dp27
sI16
(dp28
sI17
(dp29
sI18
(dp30
ssS'graph'
p31
(dp32
sS'nodes'
p33
g1
(cnetworkx.classes.reportviews
NodeView
p34
g3
NtRp35
(dp36
S'_nodes'
p37
g11
sbsS'_adj'
p38
(dp39
I0
(dp40
I18
(dp41
S'color'
p42
S'green'
p43
sS'distance'
p44
cnumpy.core.multiarray
scalar
p45
(cnumpy
dtype
p46
(S'f8'
I0
I1
tRp47
(I3
S'<'
NNNI-1
I-1
I0
tbS'\x00\x00\x00\x00\x008o@'
tRp48
sS'capacity'
p49
I162
sS'duedate'
p50
I9223372036854775807
ssI11
(dp51
g42
S'black'
p52
sg44
g45
(g47
S'\x00\x00\x00\x00\x008o@'
tRp53
sg49
I87
sg50
I9223372036854775807
ssI12
(dp54
g42
g43
sg44
g45
(g47
S'\x00\x00\x00\x00\x008o@'
tRp55
sg49
I162
sg50
I9223372036854775807
sssI1
(dp56
I16
(dp57
g42
g43
sg44
g45
(g47
S'\x00\x00\x00\x00\x008o@'
tRp58
sg49
I162
sg50
I9223372036854775807
ssI17
(dp59
g42
g43
sg44
g45
(g47
S'\x00\x00\x00\x00\x008\x7f@'
tRp60
sg49
I194
sg50
I9223372036854775807
ssI5
(dp61
g42
g43
sg44
g45
(g47
S'\x00\x00\x00\x00\x008o@'
tRp62
sg49
I162
sg50
I9223372036854775807
sssI2
(dp63
I18
(dp64
g42
g43
sg44
g45
(g47
S'\x00\x00\x00\x00\x008\x7f@'
tRp65
sg49
I194
sg50
I9223372036854775807
ssI15
(dp66
g42
g43
sg44
g45
(g47
S'\x00\x00\x00\x00\x008\x7f@'
tRp67
sg49
I194
sg50
I9223372036854775807
sssI3
(dp68
I8
(dp69
g42
g43
sg44
g45
(g47
S'\x00\x00\x00\x00\x008o@'
tRp70
sg49
I162
sg50
I9223372036854775807
ssI17
(dp71
g42
g43
sg44
g45
(g47
S'\x00\x00\x00\x00\x008\x7f@'
tRp72
sg49
I194
sg50
I9223372036854775807
ssI6
(dp73
g42
g43
sg44
g45
(g47
S'\x00\x00\x00\x00\x008o@'
tRp74
sg49
I162
sg50
I9223372036854775807
sssI4
(dp75
I9
(dp76
g42
g43
sg44
g45
(g47
S'\x00\x00\x00\x00\x008o@'
tRp77
sg49
I162
sg50
I9223372036854775807
ssI10
(dp78
g42
g43
sg44
g45
(g47
S'\x00\x00\x00\x00\x008o@'
tRp79
sg49
I162
sg50
I9223372036854775807
ssI15
(dp80
g42
g43
sg44
g45
(g47
S'\x00\x00\x00\x00\x008o@'
tRp81
sg49
I162
sg50
I9223372036854775807
sssI5
(dp82
I1
g61
sI10
(dp83
g42
g43
sg44
g45
(g47
S'\x00\x00\x00\x00\x008o@'
tRp84
sg49
I162
sg50
I9223372036854775807
ssI9
(dp85
g42
g52
sg44
g45
(g47
S'\x00\x00\x00\x00\x008o@'
tRp86
sg49
I87
sg50
I9223372036854775807
sssI6
(dp87
I11
(dp88
g42
g52
sg44
g45
(g47
S'\x00\x00\x00\x00\x008o@'
tRp89
sg49
I87
sg50
I9223372036854775807
ssI10
(dp90
g42
g43
sg44
g45
(g47
S'\x00\x00\x00\x00\x008o@'
tRp91
sg49
I162
sg50
I9223372036854775807
ssI3
g73
ssI7
(dp92
I16
(dp93
g42
g52
sg44
g45
(g47
S'\x00\x00\x00\x00\x008o@'
tRp94
sg49
I87
sg50
I9223372036854775807
ssI13
(dp95
g42
g52
sg44
g45
(g47
S'\x00\x00\x00\x00\x008o@'
tRp96
sg49
I87
sg50
I9223372036854775807
sssI8
(dp97
I11
(dp98
g42
g43
sg44
g45
(g47
S'\x00\x00\x00\x00\x008o@'
tRp99
sg49
I162
sg50
I9223372036854775807
ssI3
g69
sI12
(dp100
g42
g43
sg44
g45
(g47
S'\x00\x00\x00\x00\x008o@'
tRp101
sg49
I162
sg50
I9223372036854775807
sssI9
(dp102
I16
(dp103
g42
g43
sg44
g45
(g47
S'\x00\x00\x00\x00\x008o@'
tRp104
sg49
I162
sg50
I9223372036854775807
ssI4
g76
sI5
g85
sI13
(dp105
g42
g43
sg44
g45
(g47
S'\x00\x00\x00\x00\x008o@'
tRp106
sg49
I162
sg50
I9223372036854775807
sssI10
(dp107
I14
(dp108
g42
g43
sg44
g45
(g47
S'\x00\x00\x00\x00\x008o@'
tRp109
sg49
I162
sg50
I9223372036854775807
ssI4
g78
sI5
g83
sI6
g90
ssI11
(dp110
I0
g51
sI8
g98
sI14
(dp111
g42
g43
sg44
g45
(g47
S'\x00\x00\x00\x00\x008o@'
tRp112
sg49
I162
sg50
I9223372036854775807
ssI6
g88
ssI12
(dp113
I0
g54
sI8
g100
ssI13
(dp114
I9
g105
sI15
(dp115
g42
g52
sg44
g45
(g47
S'\x00\x00\x00\x00\x008o@'
tRp116
sg49
I87
sg50
I9223372036854775807
ssI7
g95
ssI14
(dp117
I10
g108
sI11
g111
sI18
(dp118
g42
g43
sg44
g45
(g47
S'\x00\x00\x00\x00\x008o@'
tRp119
sg49
I162
sg50
I9223372036854775807
sssI15
(dp120
I2
g66
sI4
g80
sI13
g115
ssI16
(dp121
I1
g57
sI9
g103
sI7
g93
ssI17
(dp122
I1
g59
sI3
g71
ssI18
(dp123
I0
g41
sI2
g64
sI14
g118
sssS'adjlist_outer_dict_factory'
p124
g7
sb.